

Microchip MPLAB XC8 Assembler V2.31 build 20201012212115 
                                                                                               Wed Sep 08 10:09:08 2021

Microchip MPLAB XC8 C Compiler v2.31 (Free license) build 20201012212115 Og1 
     1                           	processor	16F887
     2                           	pagewidth 120
     3                           	opt	flic
     4                           	psect	strings,global,class=STRING,delta=2,noexec
     5                           	psect	cinit,global,class=CODE,merge=1,delta=2
     6                           	psect	bssCOMMON,global,class=COMMON,space=1,delta=1,noexec
     7                           	psect	bssBANK1,global,class=BANK1,space=1,delta=1,noexec
     8                           	psect	clrtext,global,class=CODE,delta=2
     9                           	psect	cstackBANK1,global,class=BANK1,space=1,delta=1,noexec
    10                           	psect	cstackCOMMON,global,class=COMMON,space=1,delta=1,noexec
    11                           	psect	cstackBANK0,global,class=BANK0,space=1,delta=1,noexec
    12                           	psect	maintext,global,class=CODE,split=1,delta=2
    13                           	psect	text1,local,class=CODE,merge=1,delta=2
    14                           	psect	text2,local,class=CODE,merge=1,delta=2
    15                           	psect	text3,local,class=CODE,merge=1,delta=2,group=1
    16                           	psect	text4,local,class=CODE,merge=1,delta=2
    17                           	psect	text5,local,class=CODE,merge=1,delta=2,group=1
    18                           	psect	text6,local,class=CODE,merge=1,delta=2
    19                           	psect	text7,local,class=CODE,merge=1,delta=2
    20                           	psect	text8,local,class=CODE,merge=1,delta=2
    21                           	psect	text9,local,class=CODE,merge=1,delta=2
    22                           	psect	text10,local,class=CODE,merge=1,delta=2
    23                           	psect	text11,local,class=CODE,merge=1,delta=2
    24                           	psect	text12,local,class=CODE,merge=1,delta=2
    25                           	psect	text13,local,class=CODE,merge=1,delta=2
    26                           	psect	text14,local,class=CODE,merge=1,delta=2
    27                           	psect	text15,local,class=CODE,merge=1,delta=2
    28                           	psect	text16,local,class=CODE,merge=1,delta=2
    29                           	psect	text17,local,class=CODE,merge=1,delta=2
    30                           	psect	text18,local,class=CODE,merge=1,delta=2
    31                           	psect	text19,local,class=CODE,merge=1,delta=2,group=1
    32                           	psect	text20,local,class=CODE,merge=1,delta=2,group=1
    33                           	psect	text21,local,class=CODE,merge=1,delta=2,group=1
    34                           	psect	text22,local,class=CODE,merge=1,delta=2,group=1
    35                           	psect	text23,local,class=CODE,merge=1,delta=2,group=1
    36                           	psect	text24,local,class=CODE,merge=1,delta=2,group=1
    37                           	psect	text25,local,class=CODE,merge=1,delta=2,group=1
    38                           	psect	text26,local,class=CODE,merge=1,delta=2,group=1
    39                           	psect	text27,local,class=CODE,merge=1,delta=2,group=1
    40                           	psect	text28,local,class=CODE,merge=1,delta=2,group=1
    41                           	psect	text29,local,class=CODE,merge=1,delta=2
    42                           	psect	intentry,global,class=CODE,delta=2
    43                           	psect	config,global,abs,ovrld,class=CONFIG,space=4,delta=2,noexec
    44                           	dabs	1,0x7E,2
    45  0000                     
    46                           ; Version 2.20
    47                           ; Generated 12/02/2020 GMT
    48                           ; 
    49                           ; Copyright © 2020, Microchip Technology Inc. and its subsidiaries ("Microchip")
    50                           ; All rights reserved.
    51                           ; 
    52                           ; This software is developed by Microchip Technology Inc. and its subsidiaries ("Microch
      +                          ip").
    53                           ; 
    54                           ; Redistribution and use in source and binary forms, with or without modification, are
    55                           ; permitted provided that the following conditions are met:
    56                           ; 
    57                           ;     1. Redistributions of source code must retain the above copyright notice, this lis
      +                          t of
    58                           ;        conditions and the following disclaimer.
    59                           ; 
    60                           ;     2. Redistributions in binary form must reproduce the above copyright notice, this 
      +                          list
    61                           ;        of conditions and the following disclaimer in the documentation and/or other
    62                           ;        materials provided with the distribution.
    63                           ; 
    64                           ;     3. Microchip's name may not be used to endorse or promote products derived from th
      +                          is
    65                           ;        software without specific prior written permission.
    66                           ; 
    67                           ; THIS SOFTWARE IS PROVIDED BY MICROCHIP "AS IS" AND ANY EXPRESS OR IMPLIED WARRANTIES,
    68                           ; INCLUDING, BUT NOT LIMITED TO, THE IMPLIED WARRANTIES OF MERCHANTABILITY AND FITNESS F
      +                          OR
    69                           ; PURPOSE ARE DISCLAIMED.  IN NO EVENT SHALL MICROCHIP BE LIABLE FOR ANY DIRECT, INDIREC
      +                          T,
    70                           ; INCIDENTAL, SPECIAL, EXEMPLARY, OR CONSEQUENTIAL DAMAGES (INCLUDING BUT NOT LIMITED TO
    71                           ; PROCUREMENT OF SUBSTITUTE GOODS OR SERVICES; LOSS OF USE, DATA OR PROFITS; OR BUSINESS
    72                           ; INTERRUPTION) HOWSOEVER CAUSED AND ON ANY THEORY OF LIABILITY, WHETHER IN CONTRACT, ST
      +                          RICT
    73                           ; LIABILITY, OR TORT (INCLUDING NEGLIGENCE OR OTHERWISE) ARISING IN ANY WAY OUT OF THE U
      +                          SE OF
    74                           ; THIS SOFTWARE, EVEN IF ADVISED OF THE POSSIBILITY OF SUCH DAMAGE.
    75                           ; 
    76                           ; 
    77                           ; Code-generator required, PIC16F887 Definitions
    78                           ; 
    79                           ; SFR Addresses
    80  0000                     	;# 
    81  0001                     	;# 
    82  0002                     	;# 
    83  0003                     	;# 
    84  0004                     	;# 
    85  0005                     	;# 
    86  0006                     	;# 
    87  0007                     	;# 
    88  0008                     	;# 
    89  0009                     	;# 
    90  000A                     	;# 
    91  000B                     	;# 
    92  000C                     	;# 
    93  000D                     	;# 
    94  000E                     	;# 
    95  000E                     	;# 
    96  000F                     	;# 
    97  0010                     	;# 
    98  0011                     	;# 
    99  0012                     	;# 
   100  0013                     	;# 
   101  0014                     	;# 
   102  0015                     	;# 
   103  0015                     	;# 
   104  0016                     	;# 
   105  0017                     	;# 
   106  0018                     	;# 
   107  0019                     	;# 
   108  001A                     	;# 
   109  001B                     	;# 
   110  001B                     	;# 
   111  001C                     	;# 
   112  001D                     	;# 
   113  001E                     	;# 
   114  001F                     	;# 
   115  0081                     	;# 
   116  0085                     	;# 
   117  0086                     	;# 
   118  0087                     	;# 
   119  0088                     	;# 
   120  0089                     	;# 
   121  008C                     	;# 
   122  008D                     	;# 
   123  008E                     	;# 
   124  008F                     	;# 
   125  0090                     	;# 
   126  0091                     	;# 
   127  0092                     	;# 
   128  0093                     	;# 
   129  0093                     	;# 
   130  0093                     	;# 
   131  0094                     	;# 
   132  0095                     	;# 
   133  0096                     	;# 
   134  0097                     	;# 
   135  0098                     	;# 
   136  0099                     	;# 
   137  009A                     	;# 
   138  009B                     	;# 
   139  009C                     	;# 
   140  009D                     	;# 
   141  009E                     	;# 
   142  009F                     	;# 
   143  0105                     	;# 
   144  0107                     	;# 
   145  0108                     	;# 
   146  0109                     	;# 
   147  010C                     	;# 
   148  010C                     	;# 
   149  010D                     	;# 
   150  010E                     	;# 
   151  010F                     	;# 
   152  0185                     	;# 
   153  0187                     	;# 
   154  0188                     	;# 
   155  0189                     	;# 
   156  018C                     	;# 
   157  018D                     	;# 
   158  0000                     	;# 
   159  0001                     	;# 
   160  0002                     	;# 
   161  0003                     	;# 
   162  0004                     	;# 
   163  0005                     	;# 
   164  0006                     	;# 
   165  0007                     	;# 
   166  0008                     	;# 
   167  0009                     	;# 
   168  000A                     	;# 
   169  000B                     	;# 
   170  000C                     	;# 
   171  000D                     	;# 
   172  000E                     	;# 
   173  000E                     	;# 
   174  000F                     	;# 
   175  0010                     	;# 
   176  0011                     	;# 
   177  0012                     	;# 
   178  0013                     	;# 
   179  0014                     	;# 
   180  0015                     	;# 
   181  0015                     	;# 
   182  0016                     	;# 
   183  0017                     	;# 
   184  0018                     	;# 
   185  0019                     	;# 
   186  001A                     	;# 
   187  001B                     	;# 
   188  001B                     	;# 
   189  001C                     	;# 
   190  001D                     	;# 
   191  001E                     	;# 
   192  001F                     	;# 
   193  0081                     	;# 
   194  0085                     	;# 
   195  0086                     	;# 
   196  0087                     	;# 
   197  0088                     	;# 
   198  0089                     	;# 
   199  008C                     	;# 
   200  008D                     	;# 
   201  008E                     	;# 
   202  008F                     	;# 
   203  0090                     	;# 
   204  0091                     	;# 
   205  0092                     	;# 
   206  0093                     	;# 
   207  0093                     	;# 
   208  0093                     	;# 
   209  0094                     	;# 
   210  0095                     	;# 
   211  0096                     	;# 
   212  0097                     	;# 
   213  0098                     	;# 
   214  0099                     	;# 
   215  009A                     	;# 
   216  009B                     	;# 
   217  009C                     	;# 
   218  009D                     	;# 
   219  009E                     	;# 
   220  009F                     	;# 
   221  0105                     	;# 
   222  0107                     	;# 
   223  0108                     	;# 
   224  0109                     	;# 
   225  010C                     	;# 
   226  010C                     	;# 
   227  010D                     	;# 
   228  010E                     	;# 
   229  010F                     	;# 
   230  0185                     	;# 
   231  0187                     	;# 
   232  0188                     	;# 
   233  0189                     	;# 
   234  018C                     	;# 
   235  018D                     	;# 
   236  0000                     	;# 
   237  0001                     	;# 
   238  0002                     	;# 
   239  0003                     	;# 
   240  0004                     	;# 
   241  0005                     	;# 
   242  0006                     	;# 
   243  0007                     	;# 
   244  0008                     	;# 
   245  0009                     	;# 
   246  000A                     	;# 
   247  000B                     	;# 
   248  000C                     	;# 
   249  000D                     	;# 
   250  000E                     	;# 
   251  000E                     	;# 
   252  000F                     	;# 
   253  0010                     	;# 
   254  0011                     	;# 
   255  0012                     	;# 
   256  0013                     	;# 
   257  0014                     	;# 
   258  0015                     	;# 
   259  0015                     	;# 
   260  0016                     	;# 
   261  0017                     	;# 
   262  0018                     	;# 
   263  0019                     	;# 
   264  001A                     	;# 
   265  001B                     	;# 
   266  001B                     	;# 
   267  001C                     	;# 
   268  001D                     	;# 
   269  001E                     	;# 
   270  001F                     	;# 
   271  0081                     	;# 
   272  0085                     	;# 
   273  0086                     	;# 
   274  0087                     	;# 
   275  0088                     	;# 
   276  0089                     	;# 
   277  008C                     	;# 
   278  008D                     	;# 
   279  008E                     	;# 
   280  008F                     	;# 
   281  0090                     	;# 
   282  0091                     	;# 
   283  0092                     	;# 
   284  0093                     	;# 
   285  0093                     	;# 
   286  0093                     	;# 
   287  0094                     	;# 
   288  0095                     	;# 
   289  0096                     	;# 
   290  0097                     	;# 
   291  0098                     	;# 
   292  0099                     	;# 
   293  009A                     	;# 
   294  009B                     	;# 
   295  009C                     	;# 
   296  009D                     	;# 
   297  009E                     	;# 
   298  009F                     	;# 
   299  0105                     	;# 
   300  0107                     	;# 
   301  0108                     	;# 
   302  0109                     	;# 
   303  010C                     	;# 
   304  010C                     	;# 
   305  010D                     	;# 
   306  010E                     	;# 
   307  010F                     	;# 
   308  0185                     	;# 
   309  0187                     	;# 
   310  0188                     	;# 
   311  0189                     	;# 
   312  018C                     	;# 
   313  018D                     	;# 
   314  0000                     	;# 
   315  0001                     	;# 
   316  0002                     	;# 
   317  0003                     	;# 
   318  0004                     	;# 
   319  0005                     	;# 
   320  0006                     	;# 
   321  0007                     	;# 
   322  0008                     	;# 
   323  0009                     	;# 
   324  000A                     	;# 
   325  000B                     	;# 
   326  000C                     	;# 
   327  000D                     	;# 
   328  000E                     	;# 
   329  000E                     	;# 
   330  000F                     	;# 
   331  0010                     	;# 
   332  0011                     	;# 
   333  0012                     	;# 
   334  0013                     	;# 
   335  0014                     	;# 
   336  0015                     	;# 
   337  0015                     	;# 
   338  0016                     	;# 
   339  0017                     	;# 
   340  0018                     	;# 
   341  0019                     	;# 
   342  001A                     	;# 
   343  001B                     	;# 
   344  001B                     	;# 
   345  001C                     	;# 
   346  001D                     	;# 
   347  001E                     	;# 
   348  001F                     	;# 
   349  0081                     	;# 
   350  0085                     	;# 
   351  0086                     	;# 
   352  0087                     	;# 
   353  0088                     	;# 
   354  0089                     	;# 
   355  008C                     	;# 
   356  008D                     	;# 
   357  008E                     	;# 
   358  008F                     	;# 
   359  0090                     	;# 
   360  0091                     	;# 
   361  0092                     	;# 
   362  0093                     	;# 
   363  0093                     	;# 
   364  0093                     	;# 
   365  0094                     	;# 
   366  0095                     	;# 
   367  0096                     	;# 
   368  0097                     	;# 
   369  0098                     	;# 
   370  0099                     	;# 
   371  009A                     	;# 
   372  009B                     	;# 
   373  009C                     	;# 
   374  009D                     	;# 
   375  009E                     	;# 
   376  009F                     	;# 
   377  0105                     	;# 
   378  0107                     	;# 
   379  0108                     	;# 
   380  0109                     	;# 
   381  010C                     	;# 
   382  010C                     	;# 
   383  010D                     	;# 
   384  010E                     	;# 
   385  010F                     	;# 
   386  0185                     	;# 
   387  0187                     	;# 
   388  0188                     	;# 
   389  0189                     	;# 
   390  018C                     	;# 
   391  018D                     	;# 
   392  0013                     _SSPBUF	set	19
   393  0014                     _SSPCON	set	20
   394  0009                     _PORTE	set	9
   395  0007                     _PORTC	set	7
   396  0005                     _PORTA	set	5
   397  0008                     _PORTD	set	8
   398  0006                     _PORTB	set	6
   399  0049                     _RE1	set	73
   400  0048                     _RE0	set	72
   401  003D                     _RC5	set	61
   402  0038                     _RC0	set	56
   403  0039                     _RC1	set	57
   404  003A                     _RC2	set	58
   405  0063                     _SSPIF	set	99
   406  005E                     _PEIE	set	94
   407  005F                     _GIE	set	95
   408  0091                     _SSPCON2bits	set	145
   409  0087                     _TRISCbits	set	135
   410  0094                     _SSPSTAT	set	148
   411  0093                     _SSPADD	set	147
   412  0091                     _SSPCON2	set	145
   413  008F                     _OSCCONbits	set	143
   414  0096                     _IOCBbits	set	150
   415  0095                     _WPUB	set	149
   416  0081                     _OPTION_REGbits	set	129
   417  0089                     _TRISEbits	set	137
   418  0087                     _TRISC	set	135
   419  0088                     _TRISD	set	136
   420  0086                     _TRISB	set	134
   421  0085                     _TRISAbits	set	133
   422  0463                     _SSPIE	set	1123
   423  043C                     _TRISC4	set	1084
   424  043B                     _TRISC3	set	1083
   425  0189                     _ANSELH	set	393
   426  0188                     _ANSEL	set	392
   427                           
   428                           	psect	strings
   429  07E1                     __pstrings:
   430  07E1                     stringtab:
   431  07E1                     __stringtab:
   432                           
   433                           ;	String table - string pointers are 1 byte each
   434  07E1  1BFF               	btfsc	btemp+1,7
   435  07E2  2FEB               	ljmp	stringcode
   436  07E3  1383               	bcf	3,7
   437  07E4  187F               	btfsc	btemp+1,0
   438  07E5  1783               	bsf	3,7
   439  07E6  0800               	movf	0,w
   440  07E7  0A84               	incf	4,f
   441  07E8  1903               	skipnz
   442  07E9  0AFF               	incf	btemp+1,f
   443  07EA  0008               	return
   444  07EB                     stringcode:
   445  07EB                     stringdir:
   446  07EB  3007               	movlw	high stringdir
   447  07EC  008A               	movwf	10
   448  07ED  0804               	movf	4,w
   449  07EE  0A84               	incf	4,f
   450  07EF  0782               	addwf	2,f
   451  07F0                     __stringbase:
   452  07F0  3400               	retlw	0
   453  07F1                     __end_of__stringtab:
   454  07F1                     STR_1:
   455  07F1  3453               	retlw	83	;'S'
   456  07F2  3431               	retlw	49	;'1'
   457  07F3  3400               	retlw	0
   458  07F4                     STR_2:
   459  07F4  3453               	retlw	83	;'S'
   460  07F5  3432               	retlw	50	;'2'
   461  07F6  3400               	retlw	0
   462  07F7                     STR_3:
   463  07F7  3453               	retlw	83	;'S'
   464  07F8  3433               	retlw	51	;'3'
   465  07F9  3400               	retlw	0
   466  07FA                     STR_5:
   467  07FA  3427               	retlw	39	;'''
   468  07FB  3400               	retlw	0
   469  07FC                     STR_4:
   470  07FC  3456               	retlw	86	;'V'
   471  07FD  3400               	retlw	0
   472                           
   473                           	psect	cinit
   474  000F                     start_initialization:	
   475                           ; #config settings
   476                           
   477  000F                     __initialization:
   478                           
   479                           ; Clear objects allocated to COMMON
   480  000F  01FA               	clrf	__pbssCOMMON& (0+127)
   481  0010  01FB               	clrf	(__pbssCOMMON+1)& (0+127)
   482                           
   483                           ; Clear objects allocated to BANK1
   484  0011  1383               	bcf	3,7	;select IRP bank0
   485  0012  30A0               	movlw	low __pbssBANK1
   486  0013  0084               	movwf	4
   487  0014  30CD               	movlw	low (__pbssBANK1+45)
   488  0015  160A  118A  2255  120A  118A  	fcall	clear_ram0
   489  001A                     end_of_initialization:	
   490                           ;End of C runtime variable initialization code
   491                           
   492  001A                     __end_of__initialization:
   493  001A  0183               	clrf	3
   494  001B  120A  158A  2CE8   	ljmp	_main	;jump to C main() function
   495                           
   496                           	psect	bssCOMMON
   497  007A                     __pbssCOMMON:
   498  007A                     _Residuo:
   499  007A                     	ds	1
   500  007B                     _Centenas:
   501  007B                     	ds	1
   502                           
   503                           	psect	bssBANK1
   504  00A0                     __pbssBANK1:
   505  00A0                     _Pot_conversor:
   506  00A0                     	ds	4
   507  00A4                     _counter:
   508  00A4                     	ds	4
   509  00A8                     _value:
   510  00A8                     	ds	1
   511  00A9                     _Unidades:
   512  00A9                     	ds	1
   513  00AA                     _Decenas:
   514  00AA                     	ds	1
   515  00AB                     _Cont_conversor:
   516  00AB                     	ds	1
   517  00AC                     _Temp_conversor:
   518  00AC                     	ds	1
   519  00AD                     _POT:
   520  00AD                     	ds	1
   521  00AE                     _temperature:
   522  00AE                     	ds	1
   523  00AF                     _contador:
   524  00AF                     	ds	10
   525  00B9                     _ADC1:
   526  00B9                     	ds	10
   527  00C3                     _ADC0:
   528  00C3                     	ds	10
   529                           
   530                           	psect	clrtext
   531  1255                     clear_ram0:	
   532                           ;	Called with FSR containing the base address, and
   533                           ;	W with the last address+1
   534                           
   535  1255  0064               	clrwdt	;clear the watchdog before getting into this loop
   536  1256                     clrloop0:
   537  1256  0180               	clrf	0	;clear RAM location pointed to by FSR
   538  1257  0A84               	incf	4,f	;increment pointer
   539  1258  0604               	xorwf	4,w	;XOR with final address
   540  1259  1903               	btfsc	3,2	;have we reached the end yet?
   541  125A  3400               	retlw	0	;all done for this memory range, return
   542  125B  0604               	xorwf	4,w	;XOR again to restore value
   543  125C  2A56               	goto	clrloop0	;do the next byte
   544                           
   545                           	psect	cstackBANK1
   546  00CD                     __pcstackBANK1:
   547  00CD                     ?_ADC_convert:
   548  00CD                     ADC_convert@a:	
   549                           ; 1 bytes @ 0x0
   550                           
   551                           
   552                           ; 4 bytes @ 0x0
   553  00CD                     	ds	4
   554  00D1                     ADC_convert@place:
   555                           
   556                           ; 2 bytes @ 0x4
   557  00D1                     	ds	2
   558  00D3                     ADC_convert@temp:
   559                           
   560                           ; 2 bytes @ 0x6
   561  00D3                     	ds	2
   562  00D5                     ADC_convert@j:
   563                           
   564                           ; 2 bytes @ 0x8
   565  00D5                     	ds	2
   566  00D7                     ADC_convert@data:
   567                           
   568                           ; 1 bytes @ 0xA
   569  00D7                     	ds	1
   570  00D8                     ADC_convert@x:
   571                           
   572                           ; 4 bytes @ 0xB
   573  00D8                     	ds	4
   574  00DC                     ADC_convert@i:
   575                           
   576                           ; 2 bytes @ 0xF
   577  00DC                     	ds	2
   578  00DE                     ADC_convert@character:
   579                           
   580                           ; 2 bytes @ 0x11
   581  00DE                     	ds	2
   582  00E0                     ADC_convert@mu:
   583                           
   584                           ; 2 bytes @ 0x13
   585  00E0                     	ds	2
   586  00E2                     ??_main:
   587                           
   588                           ; 1 bytes @ 0x15
   589  00E2                     	ds	4
   590  00E6                     _main$1024:
   591                           
   592                           ; 4 bytes @ 0x19
   593  00E6                     	ds	4
   594                           
   595                           	psect	cstackCOMMON
   596  0070                     __pcstackCOMMON:
   597  0070                     ?_setup:
   598  0070                     ?_LCD_Init:	
   599                           ; 1 bytes @ 0x0
   600                           
   601  0070                     ?_LCD_Clear:	
   602                           ; 1 bytes @ 0x0
   603                           
   604  0070                     ?_I2C_Master_Start:	
   605                           ; 1 bytes @ 0x0
   606                           
   607  0070                     ?_I2C_Master_Stop:	
   608                           ; 1 bytes @ 0x0
   609                           
   610  0070                     ?_division:	
   611                           ; 1 bytes @ 0x0
   612                           
   613  0070                     ?_isr:	
   614                           ; 1 bytes @ 0x0
   615                           
   616  0070                     ??_isr:	
   617                           ; 1 bytes @ 0x0
   618                           
   619  0070                     ?_main:	
   620                           ; 1 bytes @ 0x0
   621                           
   622  0070                     ?_I2C_Master_Wait:	
   623                           ; 1 bytes @ 0x0
   624                           
   625  0070                     ?_LCD_Port:	
   626                           ; 1 bytes @ 0x0
   627                           
   628  0070                     ?_LCD_Cmd:	
   629                           ; 1 bytes @ 0x0
   630                           
   631  0070                     ?_LCD_Write_Char:	
   632                           ; 1 bytes @ 0x0
   633                           
   634                           
   635                           ; 1 bytes @ 0x0
   636  0070                     	ds	2
   637  0072                     ?___flge:
   638  0072                     ??_I2C_Master_Start:	
   639                           ; 1 bit 
   640                           
   641  0072                     ?_I2C_Master_Write:	
   642                           ; 1 bytes @ 0x2
   643                           
   644  0072                     ??_I2C_Master_Stop:	
   645                           ; 1 bytes @ 0x2
   646                           
   647  0072                     ??_I2C_Master_Wait:	
   648                           ; 1 bytes @ 0x2
   649                           
   650  0072                     ??_LCD_Port:	
   651                           ; 1 bytes @ 0x2
   652                           
   653  0072                     ?_I2C_Master_Read:	
   654                           ; 1 bytes @ 0x2
   655                           
   656  0072                     ?__Umul8_16:	
   657                           ; 2 bytes @ 0x2
   658                           
   659  0072                     ?___awdiv:	
   660                           ; 2 bytes @ 0x2
   661                           
   662  0072                     ?___awmod:	
   663                           ; 2 bytes @ 0x2
   664                           
   665  0072                     ?___lldiv:	
   666                           ; 2 bytes @ 0x2
   667                           
   668  0072                     ?___fltol:	
   669                           ; 4 bytes @ 0x2
   670                           
   671  0072                     ?___fladd:	
   672                           ; 4 bytes @ 0x2
   673                           
   674  0072                     LCD_Port@a:	
   675                           ; 4 bytes @ 0x2
   676                           
   677  0072                     __Umul8_16@multiplicand:	
   678                           ; 1 bytes @ 0x2
   679                           
   680  0072                     I2C_Master_Write@d:	
   681                           ; 1 bytes @ 0x2
   682                           
   683  0072                     I2C_Master_Read@a:	
   684                           ; 2 bytes @ 0x2
   685                           
   686  0072                     ___awdiv@divisor:	
   687                           ; 2 bytes @ 0x2
   688                           
   689  0072                     ___awmod@divisor:	
   690                           ; 2 bytes @ 0x2
   691                           
   692  0072                     ___lldiv@divisor:	
   693                           ; 2 bytes @ 0x2
   694                           
   695  0072                     ___flge@ff1:	
   696                           ; 4 bytes @ 0x2
   697                           
   698  0072                     ___fltol@f1:	
   699                           ; 4 bytes @ 0x2
   700                           
   701  0072                     ___fladd@b:	
   702                           ; 4 bytes @ 0x2
   703                           
   704                           
   705                           ; 4 bytes @ 0x2
   706  0072                     	ds	1
   707  0073                     ??_LCD_Cmd:
   708  0073                     ??_LCD_Write_Char:	
   709                           ; 1 bytes @ 0x3
   710                           
   711                           
   712                           ; 1 bytes @ 0x3
   713  0073                     	ds	1
   714  0074                     ??_I2C_Master_Write:
   715  0074                     ??_I2C_Master_Read:	
   716                           ; 1 bytes @ 0x4
   717                           
   718  0074                     ??__Umul8_16:	
   719                           ; 1 bytes @ 0x4
   720                           
   721  0074                     LCD_Write_Char@temp:	
   722                           ; 1 bytes @ 0x4
   723                           
   724  0074                     ___awdiv@dividend:	
   725                           ; 1 bytes @ 0x4
   726                           
   727  0074                     ___awmod@dividend:	
   728                           ; 2 bytes @ 0x4
   729                           
   730                           
   731                           ; 2 bytes @ 0x4
   732  0074                     	ds	1
   733  0075                     LCD_Cmd@a:
   734  0075                     LCD_Write_Char@y:	
   735                           ; 1 bytes @ 0x5
   736                           
   737                           
   738                           ; 1 bytes @ 0x5
   739  0075                     	ds	1
   740  0076                     ??_LCD_Init:
   741  0076                     ??_LCD_Clear:	
   742                           ; 1 bytes @ 0x6
   743                           
   744  0076                     ?_LCD_Set_Cursor:	
   745                           ; 1 bytes @ 0x6
   746                           
   747  0076                     ??___awdiv:	
   748                           ; 1 bytes @ 0x6
   749                           
   750  0076                     ??___awmod:	
   751                           ; 1 bytes @ 0x6
   752                           
   753  0076                     LCD_Set_Cursor@b:	
   754                           ; 1 bytes @ 0x6
   755                           
   756  0076                     LCD_Write_Char@a:	
   757                           ; 1 bytes @ 0x6
   758                           
   759  0076                     ___fltol@sign1:	
   760                           ; 1 bytes @ 0x6
   761                           
   762  0076                     I2C_Master_Read@temp:	
   763                           ; 1 bytes @ 0x6
   764                           
   765  0076                     ___lldiv@dividend:	
   766                           ; 2 bytes @ 0x6
   767                           
   768  0076                     ___flge@ff2:	
   769                           ; 4 bytes @ 0x6
   770                           
   771  0076                     ___fladd@a:	
   772                           ; 4 bytes @ 0x6
   773                           
   774                           
   775                           ; 4 bytes @ 0x6
   776  0076                     	ds	1
   777  0077                     ??_LCD_Set_Cursor:
   778  0077                     ?_LCD_Write_String:	
   779                           ; 1 bytes @ 0x7
   780                           
   781  0077                     ___awmod@counter:	
   782                           ; 1 bytes @ 0x7
   783                           
   784  0077                     ___fltol@exp1:	
   785                           ; 1 bytes @ 0x7
   786                           
   787  0077                     LCD_Write_String@a:	
   788                           ; 1 bytes @ 0x7
   789                           
   790                           
   791                           ; 2 bytes @ 0x7
   792  0077                     	ds	1
   793  0078                     ??___wmul:
   794  0078                     ___awmod@sign:	
   795                           ; 1 bytes @ 0x8
   796                           
   797  0078                     ___wmul@product:	
   798                           ; 1 bytes @ 0x8
   799                           
   800                           
   801                           ; 2 bytes @ 0x8
   802  0078                     	ds	1
   803  0079                     division@value:
   804                           
   805                           ; 1 bytes @ 0x9
   806  0079                     	ds	1
   807  007A                     ??_setup:
   808  007A                     ??___flsub:	
   809                           ; 1 bytes @ 0xA
   810                           
   811                           
   812                           	psect	cstackBANK0
   813  0020                     __pcstackBANK0:	
   814                           ; 1 bytes @ 0xA
   815                           
   816  0020                     ??_LCD_Write_String:
   817  0020                     ??___lldiv:	
   818                           ; 1 bytes @ 0x0
   819                           
   820  0020                     ??___flge:	
   821                           ; 1 bytes @ 0x0
   822                           
   823  0020                     ??___fltol:	
   824                           ; 1 bytes @ 0x0
   825                           
   826  0020                     ??___fladd:	
   827                           ; 1 bytes @ 0x0
   828                           
   829  0020                     LCD_Set_Cursor@a:	
   830                           ; 1 bytes @ 0x0
   831                           
   832  0020                     ___awdiv@counter:	
   833                           ; 1 bytes @ 0x0
   834                           
   835  0020                     __Umul8_16@product:	
   836                           ; 1 bytes @ 0x0
   837                           
   838                           
   839                           ; 2 bytes @ 0x0
   840  0020                     	ds	1
   841  0021                     LCD_Set_Cursor@z:
   842  0021                     ___awdiv@sign:	
   843                           ; 1 bytes @ 0x1
   844                           
   845  0021                     ___lldiv@quotient:	
   846                           ; 1 bytes @ 0x1
   847                           
   848                           
   849                           ; 4 bytes @ 0x1
   850  0021                     	ds	1
   851  0022                     LCD_Set_Cursor@y:
   852  0022                     ___awdiv@quotient:	
   853                           ; 1 bytes @ 0x2
   854                           
   855  0022                     __Umul8_16@word_mpld:	
   856                           ; 2 bytes @ 0x2
   857                           
   858                           
   859                           ; 2 bytes @ 0x2
   860  0022                     	ds	1
   861  0023                     LCD_Set_Cursor@temp:
   862  0023                     LCD_Write_String@i:	
   863                           ; 1 bytes @ 0x3
   864                           
   865                           
   866                           ; 2 bytes @ 0x3
   867  0023                     	ds	1
   868  0024                     ??_division:
   869  0024                     __Umul8_16@multiplier:	
   870                           ; 1 bytes @ 0x4
   871                           
   872                           
   873                           ; 1 bytes @ 0x4
   874  0024                     	ds	1
   875  0025                     ?___wmul:
   876  0025                     ___lldiv@counter:	
   877                           ; 2 bytes @ 0x5
   878                           
   879  0025                     ___wmul@multiplier:	
   880                           ; 1 bytes @ 0x5
   881                           
   882                           
   883                           ; 2 bytes @ 0x5
   884  0025                     	ds	1
   885  0026                     ?_I2C_Master_Init:
   886  0026                     I2C_Master_Init@c:	
   887                           ; 1 bytes @ 0x6
   888                           
   889                           
   890                           ; 4 bytes @ 0x6
   891  0026                     	ds	1
   892  0027                     ___wmul@multiplicand:
   893                           
   894                           ; 2 bytes @ 0x7
   895  0027                     	ds	1
   896  0028                     ___fladd@signs:
   897                           
   898                           ; 1 bytes @ 0x8
   899  0028                     	ds	1
   900  0029                     ?___xxtofl:
   901  0029                     ___fladd@aexp:	
   902                           ; 4 bytes @ 0x9
   903                           
   904  0029                     ___xxtofl@val:	
   905                           ; 1 bytes @ 0x9
   906                           
   907                           
   908                           ; 4 bytes @ 0x9
   909  0029                     	ds	1
   910  002A                     ??_I2C_Master_Init:
   911  002A                     ___fladd@bexp:	
   912                           ; 1 bytes @ 0xA
   913                           
   914                           
   915                           ; 1 bytes @ 0xA
   916  002A                     	ds	1
   917  002B                     ___fladd@grs:
   918                           
   919                           ; 1 bytes @ 0xB
   920  002B                     	ds	2
   921  002D                     ??___xxtofl:
   922                           
   923                           ; 1 bytes @ 0xD
   924  002D                     	ds	4
   925  0031                     ___xxtofl@sign:
   926                           
   927                           ; 1 bytes @ 0x11
   928  0031                     	ds	1
   929  0032                     ___xxtofl@exp:
   930                           
   931                           ; 1 bytes @ 0x12
   932  0032                     	ds	1
   933  0033                     ___xxtofl@arg:
   934                           
   935                           ; 4 bytes @ 0x13
   936  0033                     	ds	4
   937  0037                     ?___flsub:
   938  0037                     ?___fldiv:	
   939                           ; 4 bytes @ 0x17
   940                           
   941  0037                     ___flsub@a:	
   942                           ; 4 bytes @ 0x17
   943                           
   944  0037                     ___fldiv@a:	
   945                           ; 4 bytes @ 0x17
   946                           
   947                           
   948                           ; 4 bytes @ 0x17
   949  0037                     	ds	4
   950  003B                     ___flsub@b:
   951  003B                     ___fldiv@b:	
   952                           ; 4 bytes @ 0x1B
   953                           
   954                           
   955                           ; 4 bytes @ 0x1B
   956  003B                     	ds	4
   957  003F                     ??___fldiv:
   958                           
   959                           ; 1 bytes @ 0x1F
   960  003F                     	ds	5
   961  0044                     ___fldiv@rem:
   962                           
   963                           ; 4 bytes @ 0x24
   964  0044                     	ds	4
   965  0048                     ___fldiv@sign:
   966                           
   967                           ; 1 bytes @ 0x28
   968  0048                     	ds	1
   969  0049                     ___fldiv@new_exp:
   970                           
   971                           ; 2 bytes @ 0x29
   972  0049                     	ds	2
   973  004B                     ___fldiv@grs:
   974                           
   975                           ; 4 bytes @ 0x2B
   976  004B                     	ds	4
   977  004F                     ___fldiv@bexp:
   978                           
   979                           ; 1 bytes @ 0x2F
   980  004F                     	ds	1
   981  0050                     ___fldiv@aexp:
   982                           
   983                           ; 1 bytes @ 0x30
   984  0050                     	ds	1
   985  0051                     ?___flmul:
   986  0051                     ___flmul@b:	
   987                           ; 4 bytes @ 0x31
   988                           
   989                           
   990                           ; 4 bytes @ 0x31
   991  0051                     	ds	4
   992  0055                     ___flmul@a:
   993                           
   994                           ; 4 bytes @ 0x35
   995  0055                     	ds	4
   996  0059                     ??___flmul:
   997                           
   998                           ; 1 bytes @ 0x39
   999  0059                     	ds	5
  1000  005E                     ___flmul@sign:
  1001                           
  1002                           ; 1 bytes @ 0x3E
  1003  005E                     	ds	1
  1004  005F                     ___flmul@aexp:
  1005                           
  1006                           ; 1 bytes @ 0x3F
  1007  005F                     	ds	1
  1008  0060                     ___flmul@grs:
  1009                           
  1010                           ; 4 bytes @ 0x40
  1011  0060                     	ds	4
  1012  0064                     ___flmul@bexp:
  1013                           
  1014                           ; 1 bytes @ 0x44
  1015  0064                     	ds	1
  1016  0065                     ___flmul@prod:
  1017                           
  1018                           ; 4 bytes @ 0x45
  1019  0065                     	ds	4
  1020  0069                     ___flmul@temp:
  1021                           
  1022                           ; 2 bytes @ 0x49
  1023  0069                     	ds	2
  1024  006B                     ??_ADC_convert:
  1025                           
  1026                           ; 1 bytes @ 0x4B
  1027  006B                     	ds	2
  1028                           
  1029                           	psect	maintext
  1030  0CE8                     __pmaintext:	
  1031 ;;
  1032 ;;Main: autosize = 0, tempsize = 4, incstack = 0, save=0
  1033 ;;
  1034 ;; *************** function _main *****************
  1035 ;; Defined at:
  1036 ;;		line 84 in file "P1_main_M.c"
  1037 ;; Parameters:    Size  Location     Type
  1038 ;;		None
  1039 ;; Auto vars:     Size  Location     Type
  1040 ;;		None
  1041 ;; Return value:  Size  Location     Type
  1042 ;;                  1    wreg      void 
  1043 ;; Registers used:
  1044 ;;		wreg, fsr0l, fsr0h, status,2, status,0, btemp+1, pclath, cstack
  1045 ;; Tracked objects:
  1046 ;;		On entry : B00/0
  1047 ;;		On exit  : 0/0
  1048 ;;		Unchanged: 0/0
  1049 ;; Data sizes:     COMMON   BANK0   BANK1   BANK3   BANK2
  1050 ;;      Params:         0       0       0       0       0
  1051 ;;      Locals:         0       0       4       0       0
  1052 ;;      Temps:          0       0       4       0       0
  1053 ;;      Totals:         0       0       8       0       0
  1054 ;;Total ram usage:        8 bytes
  1055 ;; Hardware stack levels required when called:    4
  1056 ;; This function calls:
  1057 ;;		_ADC_convert
  1058 ;;		_I2C_Master_Read
  1059 ;;		_I2C_Master_Start
  1060 ;;		_I2C_Master_Stop
  1061 ;;		_I2C_Master_Write
  1062 ;;		_LCD_Clear
  1063 ;;		_LCD_Init
  1064 ;;		_LCD_Set_Cursor
  1065 ;;		_LCD_Write_String
  1066 ;;		___fldiv
  1067 ;;		___flmul
  1068 ;;		___fltol
  1069 ;;		___xxtofl
  1070 ;;		_division
  1071 ;;		_setup
  1072 ;; This function is called by:
  1073 ;;		Startup code after reset
  1074 ;; This function uses a non-reentrant model
  1075 ;;
  1076                           
  1077                           
  1078                           ;psect for function _main
  1079  0CE8                     _main:
  1080  0CE8                     l3455:	
  1081                           ;incstack = 0
  1082                           ; Regs used in _main: [wreg-fsr0h+status,2+status,0+btemp+1+pclath+cstack]
  1083                           
  1084                           
  1085                           ;P1_main_M.c: 86:     setup();
  1086  0CE8  160A  118A  2371  120A  158A  	fcall	_setup
  1087                           
  1088                           ;P1_main_M.c: 87:     LCD_Init();
  1089  0CED  160A  118A  2510  120A  158A  	fcall	_LCD_Init
  1090                           
  1091                           ;P1_main_M.c: 88:     LCD_Clear();
  1092  0CF2  160A  118A  2286  120A  158A  	fcall	_LCD_Clear
  1093  0CF7                     l96:	
  1094                           ;P1_main_M.c: 92:     while(1) {
  1095                           
  1096                           
  1097                           ;P1_main_M.c: 94:         I2C_Master_Start();
  1098  0CF7  160A  118A  225D  120A  158A  	fcall	_I2C_Master_Start
  1099                           
  1100                           ;P1_main_M.c: 95:         I2C_Master_Write(0x51);
  1101  0CFC  3051               	movlw	81
  1102  0CFD  00F2               	movwf	I2C_Master_Write@d
  1103  0CFE  3000               	movlw	0
  1104  0CFF  00F3               	movwf	I2C_Master_Write@d+1
  1105  0D00  160A  118A  226F  120A  158A  	fcall	_I2C_Master_Write
  1106                           
  1107                           ;P1_main_M.c: 96:         PORTB = I2C_Master_Read(0);
  1108  0D05  3000               	movlw	0
  1109  0D06  00F2               	movwf	I2C_Master_Read@a
  1110  0D07  00F3               	movwf	I2C_Master_Read@a+1
  1111  0D08  160A  118A  2343  120A  158A  	fcall	_I2C_Master_Read
  1112  0D0D  0872               	movf	?_I2C_Master_Read,w
  1113  0D0E  1283               	bcf	3,5	;RP0=0, select bank0
  1114  0D0F  1303               	bcf	3,6	;RP1=0, select bank0
  1115  0D10  0086               	movwf	6	;volatile
  1116                           
  1117                           ;P1_main_M.c: 97:         I2C_Master_Stop();
  1118  0D11  160A  118A  2266  120A  158A  	fcall	_I2C_Master_Stop
  1119  0D16                     l3457:
  1120                           
  1121                           ;P1_main_M.c: 98:         _delay((unsigned long)((200)*(4000000/4000.0)));
  1122  0D16  3002               	movlw	2
  1123  0D17  1683               	bsf	3,5	;RP0=1, select bank1
  1124  0D18  1303               	bcf	3,6	;RP1=0, select bank1
  1125  0D19  00E4               	movwf	(??_main^(0+128)+2)
  1126  0D1A  3004               	movlw	4
  1127  0D1B  00E3               	movwf	(??_main^(0+128)+1)
  1128  0D1C  30B9               	movlw	185
  1129  0D1D  00E2               	movwf	??_main^(0+128)
  1130  0D1E                     u4877:
  1131  0D1E  0BE2               	decfsz	??_main^(0+128),f
  1132  0D1F  2D1E               	goto	u4877
  1133  0D20  0BE3               	decfsz	(??_main^(0+128)+1),f
  1134  0D21  2D1E               	goto	u4877
  1135  0D22  0BE4               	decfsz	(??_main^(0+128)+2),f
  1136  0D23  2D1E               	goto	u4877
  1137  0D24  2D25               	nop2
  1138  0D25                     l3459:
  1139                           
  1140                           ;P1_main_M.c: 100:         I2C_Master_Start();
  1141  0D25  160A  118A  225D  120A  158A  	fcall	_I2C_Master_Start
  1142  0D2A                     l3461:
  1143                           
  1144                           ;P1_main_M.c: 101:         I2C_Master_Write(0x80);
  1145  0D2A  3080               	movlw	128
  1146  0D2B  00F2               	movwf	I2C_Master_Write@d
  1147  0D2C  3000               	movlw	0
  1148  0D2D  00F3               	movwf	I2C_Master_Write@d+1
  1149  0D2E  160A  118A  226F  120A  158A  	fcall	_I2C_Master_Write
  1150  0D33                     l3463:
  1151                           
  1152                           ;P1_main_M.c: 102:         I2C_Master_Write(0xF3);
  1153  0D33  30F3               	movlw	243
  1154  0D34  00F2               	movwf	I2C_Master_Write@d
  1155  0D35  3000               	movlw	0
  1156  0D36  00F3               	movwf	I2C_Master_Write@d+1
  1157  0D37  160A  118A  226F  120A  158A  	fcall	_I2C_Master_Write
  1158  0D3C                     l3465:
  1159                           
  1160                           ;P1_main_M.c: 103:         I2C_Master_Stop();
  1161  0D3C  160A  118A  2266  120A  158A  	fcall	_I2C_Master_Stop
  1162  0D41                     l3467:
  1163                           
  1164                           ;P1_main_M.c: 104:         _delay((unsigned long)((200)*(4000000/4000.0)));
  1165  0D41  3002               	movlw	2
  1166  0D42  1683               	bsf	3,5	;RP0=1, select bank1
  1167  0D43  1303               	bcf	3,6	;RP1=0, select bank1
  1168  0D44  00E4               	movwf	(??_main^(0+128)+2)
  1169  0D45  3004               	movlw	4
  1170  0D46  00E3               	movwf	(??_main^(0+128)+1)
  1171  0D47  30B9               	movlw	185
  1172  0D48  00E2               	movwf	??_main^(0+128)
  1173  0D49                     u4887:
  1174  0D49  0BE2               	decfsz	??_main^(0+128),f
  1175  0D4A  2D49               	goto	u4887
  1176  0D4B  0BE3               	decfsz	(??_main^(0+128)+1),f
  1177  0D4C  2D49               	goto	u4887
  1178  0D4D  0BE4               	decfsz	(??_main^(0+128)+2),f
  1179  0D4E  2D49               	goto	u4887
  1180  0D4F  2D50               	nop2
  1181                           
  1182                           ;P1_main_M.c: 106:         I2C_Master_Start();
  1183  0D50  160A  118A  225D  120A  158A  	fcall	_I2C_Master_Start
  1184                           
  1185                           ;P1_main_M.c: 107:         I2C_Master_Write(0x81);
  1186  0D55  3081               	movlw	129
  1187  0D56  00F2               	movwf	I2C_Master_Write@d
  1188  0D57  3000               	movlw	0
  1189  0D58  00F3               	movwf	I2C_Master_Write@d+1
  1190  0D59  160A  118A  226F  120A  158A  	fcall	_I2C_Master_Write
  1191                           
  1192                           ;P1_main_M.c: 108:         PORTD = I2C_Master_Read(0);
  1193  0D5E  3000               	movlw	0
  1194  0D5F  00F2               	movwf	I2C_Master_Read@a
  1195  0D60  00F3               	movwf	I2C_Master_Read@a+1
  1196  0D61  160A  118A  2343  120A  158A  	fcall	_I2C_Master_Read
  1197  0D66  0872               	movf	?_I2C_Master_Read,w
  1198  0D67  1283               	bcf	3,5	;RP0=0, select bank0
  1199  0D68  1303               	bcf	3,6	;RP1=0, select bank0
  1200  0D69  0088               	movwf	8	;volatile
  1201                           
  1202                           ;P1_main_M.c: 109:         I2C_Master_Stop();
  1203  0D6A  160A  118A  2266  120A  158A  	fcall	_I2C_Master_Stop
  1204  0D6F                     l3469:
  1205                           
  1206                           ;P1_main_M.c: 110:         _delay((unsigned long)((200)*(4000000/4000.0)));
  1207  0D6F  3002               	movlw	2
  1208  0D70  1683               	bsf	3,5	;RP0=1, select bank1
  1209  0D71  1303               	bcf	3,6	;RP1=0, select bank1
  1210  0D72  00E4               	movwf	(??_main^(0+128)+2)
  1211  0D73  3004               	movlw	4
  1212  0D74  00E3               	movwf	(??_main^(0+128)+1)
  1213  0D75  30B9               	movlw	185
  1214  0D76  00E2               	movwf	??_main^(0+128)
  1215  0D77                     u4897:
  1216  0D77  0BE2               	decfsz	??_main^(0+128),f
  1217  0D78  2D77               	goto	u4897
  1218  0D79  0BE3               	decfsz	(??_main^(0+128)+1),f
  1219  0D7A  2D77               	goto	u4897
  1220  0D7B  0BE4               	decfsz	(??_main^(0+128)+2),f
  1221  0D7C  2D77               	goto	u4897
  1222  0D7D  2D7E               	nop2
  1223  0D7E                     l3471:
  1224                           
  1225                           ;P1_main_M.c: 112:         I2C_Master_Start();
  1226  0D7E  160A  118A  225D  120A  158A  	fcall	_I2C_Master_Start
  1227  0D83                     l3473:
  1228                           
  1229                           ;P1_main_M.c: 113:         I2C_Master_Write(0x91);
  1230  0D83  3091               	movlw	145
  1231  0D84  00F2               	movwf	I2C_Master_Write@d
  1232  0D85  3000               	movlw	0
  1233  0D86  00F3               	movwf	I2C_Master_Write@d+1
  1234  0D87  160A  118A  226F  120A  158A  	fcall	_I2C_Master_Write
  1235  0D8C                     l3475:
  1236                           
  1237                           ;P1_main_M.c: 114:         PORTA = I2C_Master_Read(0);
  1238  0D8C  3000               	movlw	0
  1239  0D8D  00F2               	movwf	I2C_Master_Read@a
  1240  0D8E  00F3               	movwf	I2C_Master_Read@a+1
  1241  0D8F  160A  118A  2343  120A  158A  	fcall	_I2C_Master_Read
  1242  0D94  0872               	movf	?_I2C_Master_Read,w
  1243  0D95  1283               	bcf	3,5	;RP0=0, select bank0
  1244  0D96  1303               	bcf	3,6	;RP1=0, select bank0
  1245  0D97  0085               	movwf	5	;volatile
  1246  0D98                     l3477:
  1247                           
  1248                           ;P1_main_M.c: 115:         I2C_Master_Stop();
  1249  0D98  160A  118A  2266  120A  158A  	fcall	_I2C_Master_Stop
  1250  0D9D                     l3479:
  1251                           
  1252                           ;P1_main_M.c: 116:         _delay((unsigned long)((200)*(4000000/4000.0)));
  1253  0D9D  3002               	movlw	2
  1254  0D9E  1683               	bsf	3,5	;RP0=1, select bank1
  1255  0D9F  1303               	bcf	3,6	;RP1=0, select bank1
  1256  0DA0  00E4               	movwf	(??_main^(0+128)+2)
  1257  0DA1  3004               	movlw	4
  1258  0DA2  00E3               	movwf	(??_main^(0+128)+1)
  1259  0DA3  30B9               	movlw	185
  1260  0DA4  00E2               	movwf	??_main^(0+128)
  1261  0DA5                     u4907:
  1262  0DA5  0BE2               	decfsz	??_main^(0+128),f
  1263  0DA6  2DA5               	goto	u4907
  1264  0DA7  0BE3               	decfsz	(??_main^(0+128)+1),f
  1265  0DA8  2DA5               	goto	u4907
  1266  0DA9  0BE4               	decfsz	(??_main^(0+128)+2),f
  1267  0DAA  2DA5               	goto	u4907
  1268  0DAB  2DAC               	nop2
  1269                           
  1270                           ;P1_main_M.c: 118:         counter = PORTA;
  1271  0DAC  1283               	bcf	3,5	;RP0=0, select bank0
  1272  0DAD  1303               	bcf	3,6	;RP1=0, select bank0
  1273  0DAE  0805               	movf	5,w	;volatile
  1274  0DAF  1683               	bsf	3,5	;RP0=1, select bank1
  1275  0DB0  1303               	bcf	3,6	;RP1=0, select bank1
  1276  0DB1  00E2               	movwf	??_main^(0+128)
  1277  0DB2  01E3               	clrf	(??_main^(0+128)+1)
  1278  0DB3  01E4               	clrf	(??_main^(0+128)+2)
  1279  0DB4  01E5               	clrf	(??_main^(0+128)+3)
  1280  0DB5  0865               	movf	(??_main+3)^(0+128),w
  1281  0DB6  1283               	bcf	3,5	;RP0=0, select bank0
  1282  0DB7  1303               	bcf	3,6	;RP1=0, select bank0
  1283  0DB8  00AC               	movwf	___xxtofl@val+3
  1284  0DB9  1683               	bsf	3,5	;RP0=1, select bank1
  1285  0DBA  1303               	bcf	3,6	;RP1=0, select bank1
  1286  0DBB  0864               	movf	(??_main+2)^(0+128),w
  1287  0DBC  1283               	bcf	3,5	;RP0=0, select bank0
  1288  0DBD  1303               	bcf	3,6	;RP1=0, select bank0
  1289  0DBE  00AB               	movwf	___xxtofl@val+2
  1290  0DBF  1683               	bsf	3,5	;RP0=1, select bank1
  1291  0DC0  1303               	bcf	3,6	;RP1=0, select bank1
  1292  0DC1  0863               	movf	(??_main+1)^(0+128),w
  1293  0DC2  1283               	bcf	3,5	;RP0=0, select bank0
  1294  0DC3  1303               	bcf	3,6	;RP1=0, select bank0
  1295  0DC4  00AA               	movwf	___xxtofl@val+1
  1296  0DC5  1683               	bsf	3,5	;RP0=1, select bank1
  1297  0DC6  1303               	bcf	3,6	;RP1=0, select bank1
  1298  0DC7  0862               	movf	??_main^(0+128),w
  1299  0DC8  1283               	bcf	3,5	;RP0=0, select bank0
  1300  0DC9  1303               	bcf	3,6	;RP1=0, select bank0
  1301  0DCA  00A9               	movwf	___xxtofl@val
  1302  0DCB  3000               	movlw	0
  1303  0DCC  160A  118A  2744  120A  158A  	fcall	___xxtofl
  1304  0DD1  1283               	bcf	3,5	;RP0=0, select bank0
  1305  0DD2  1303               	bcf	3,6	;RP1=0, select bank0
  1306  0DD3  082C               	movf	?___xxtofl+3,w
  1307  0DD4  1683               	bsf	3,5	;RP0=1, select bank1
  1308  0DD5  1303               	bcf	3,6	;RP1=0, select bank1
  1309  0DD6  00A7               	movwf	(_counter+3)^(0+128)
  1310  0DD7  1283               	bcf	3,5	;RP0=0, select bank0
  1311  0DD8  1303               	bcf	3,6	;RP1=0, select bank0
  1312  0DD9  082B               	movf	?___xxtofl+2,w
  1313  0DDA  1683               	bsf	3,5	;RP0=1, select bank1
  1314  0DDB  1303               	bcf	3,6	;RP1=0, select bank1
  1315  0DDC  00A6               	movwf	(_counter+2)^(0+128)
  1316  0DDD  1283               	bcf	3,5	;RP0=0, select bank0
  1317  0DDE  1303               	bcf	3,6	;RP1=0, select bank0
  1318  0DDF  082A               	movf	?___xxtofl+1,w
  1319  0DE0  1683               	bsf	3,5	;RP0=1, select bank1
  1320  0DE1  1303               	bcf	3,6	;RP1=0, select bank1
  1321  0DE2  00A5               	movwf	(_counter+1)^(0+128)
  1322  0DE3  1283               	bcf	3,5	;RP0=0, select bank0
  1323  0DE4  1303               	bcf	3,6	;RP1=0, select bank0
  1324  0DE5  0829               	movf	?___xxtofl,w
  1325  0DE6  1683               	bsf	3,5	;RP0=1, select bank1
  1326  0DE7  1303               	bcf	3,6	;RP1=0, select bank1
  1327  0DE8  00A4               	movwf	_counter^(0+128)
  1328  0DE9                     l3481:
  1329                           
  1330                           ;P1_main_M.c: 119:         POT = PORTB;
  1331  0DE9  1283               	bcf	3,5	;RP0=0, select bank0
  1332  0DEA  1303               	bcf	3,6	;RP1=0, select bank0
  1333  0DEB  0806               	movf	6,w	;volatile
  1334  0DEC  1683               	bsf	3,5	;RP0=1, select bank1
  1335  0DED  1303               	bcf	3,6	;RP1=0, select bank1
  1336  0DEE  00E2               	movwf	??_main^(0+128)
  1337  0DEF  0862               	movf	??_main^(0+128),w
  1338  0DF0  00AD               	movwf	_POT^(0+128)	;volatile
  1339  0DF1                     l3483:
  1340                           
  1341                           ;P1_main_M.c: 120:         temperature = PORTD;
  1342  0DF1  1283               	bcf	3,5	;RP0=0, select bank0
  1343  0DF2  1303               	bcf	3,6	;RP1=0, select bank0
  1344  0DF3  0808               	movf	8,w	;volatile
  1345  0DF4  1683               	bsf	3,5	;RP0=1, select bank1
  1346  0DF5  1303               	bcf	3,6	;RP1=0, select bank1
  1347  0DF6  00E2               	movwf	??_main^(0+128)
  1348  0DF7  0862               	movf	??_main^(0+128),w
  1349  0DF8  00AE               	movwf	_temperature^(0+128)	;volatile
  1350                           
  1351                           ;P1_main_M.c: 122:         LCD_Clear();
  1352  0DF9  160A  118A  2286  120A  158A  	fcall	_LCD_Clear
  1353                           
  1354                           ;P1_main_M.c: 123:         LCD_Set_Cursor(1,2);
  1355  0DFE  3002               	movlw	2
  1356  0DFF  1683               	bsf	3,5	;RP0=1, select bank1
  1357  0E00  1303               	bcf	3,6	;RP1=0, select bank1
  1358  0E01  00E2               	movwf	??_main^(0+128)
  1359  0E02  0862               	movf	??_main^(0+128),w
  1360  0E03  00F6               	movwf	LCD_Set_Cursor@b
  1361  0E04  3001               	movlw	1
  1362  0E05  160A  118A  245F  120A  158A  	fcall	_LCD_Set_Cursor
  1363  0E0A                     l3485:
  1364                           
  1365                           ;P1_main_M.c: 124:         LCD_Write_String("S1");
  1366  0E0A  3001               	movlw	(low ((STR_1-__stringbase)| (0+32768)))& (0+255)
  1367  0E0B  00F7               	movwf	LCD_Write_String@a
  1368  0E0C  3080               	movlw	128
  1369  0E0D  00F8               	movwf	LCD_Write_String@a+1
  1370  0E0E  160A  118A  2419  120A  158A  	fcall	_LCD_Write_String
  1371  0E13                     l3487:
  1372                           
  1373                           ;P1_main_M.c: 125:         LCD_Set_Cursor(1,8);
  1374  0E13  3008               	movlw	8
  1375  0E14  1683               	bsf	3,5	;RP0=1, select bank1
  1376  0E15  1303               	bcf	3,6	;RP1=0, select bank1
  1377  0E16  00E2               	movwf	??_main^(0+128)
  1378  0E17  0862               	movf	??_main^(0+128),w
  1379  0E18  00F6               	movwf	LCD_Set_Cursor@b
  1380  0E19  3001               	movlw	1
  1381  0E1A  160A  118A  245F  120A  158A  	fcall	_LCD_Set_Cursor
  1382                           
  1383                           ;P1_main_M.c: 126:         LCD_Write_String("S2");
  1384  0E1F  3004               	movlw	(low ((STR_2-__stringbase)| (0+32768)))& (0+255)
  1385  0E20  00F7               	movwf	LCD_Write_String@a
  1386  0E21  3080               	movlw	128
  1387  0E22  00F8               	movwf	LCD_Write_String@a+1
  1388  0E23  160A  118A  2419  120A  158A  	fcall	_LCD_Write_String
  1389  0E28                     l3489:
  1390                           
  1391                           ;P1_main_M.c: 127:         LCD_Set_Cursor(1,14);
  1392  0E28  300E               	movlw	14
  1393  0E29  1683               	bsf	3,5	;RP0=1, select bank1
  1394  0E2A  1303               	bcf	3,6	;RP1=0, select bank1
  1395  0E2B  00E2               	movwf	??_main^(0+128)
  1396  0E2C  0862               	movf	??_main^(0+128),w
  1397  0E2D  00F6               	movwf	LCD_Set_Cursor@b
  1398  0E2E  3001               	movlw	1
  1399  0E2F  160A  118A  245F  120A  158A  	fcall	_LCD_Set_Cursor
  1400  0E34                     l3491:
  1401                           
  1402                           ;P1_main_M.c: 128:         LCD_Write_String("S3");
  1403  0E34  3007               	movlw	(low ((STR_3-__stringbase)| (0+32768)))& (0+255)
  1404  0E35  00F7               	movwf	LCD_Write_String@a
  1405  0E36  3080               	movlw	128
  1406  0E37  00F8               	movwf	LCD_Write_String@a+1
  1407  0E38  160A  118A  2419  120A  158A  	fcall	_LCD_Write_String
  1408  0E3D                     l3493:
  1409                           
  1410                           ;P1_main_M.c: 129:         _delay((unsigned long)((1000)*(4000000/4000.0)));
  1411  0E3D  3006               	movlw	6
  1412  0E3E  1683               	bsf	3,5	;RP0=1, select bank1
  1413  0E3F  1303               	bcf	3,6	;RP1=0, select bank1
  1414  0E40  00E4               	movwf	(??_main^(0+128)+2)
  1415  0E41  3013               	movlw	19
  1416  0E42  00E3               	movwf	(??_main^(0+128)+1)
  1417  0E43  30AD               	movlw	173
  1418  0E44  00E2               	movwf	??_main^(0+128)
  1419  0E45                     u4917:
  1420  0E45  0BE2               	decfsz	??_main^(0+128),f
  1421  0E46  2E45               	goto	u4917
  1422  0E47  0BE3               	decfsz	(??_main^(0+128)+1),f
  1423  0E48  2E45               	goto	u4917
  1424  0E49  0BE4               	decfsz	(??_main^(0+128)+2),f
  1425  0E4A  2E45               	goto	u4917
  1426  0E4B                     l3495:
  1427                           
  1428                           ;P1_main_M.c: 131:         LCD_Set_Cursor(2,1);
  1429  0E4B  01F6               	clrf	LCD_Set_Cursor@b
  1430  0E4C  0AF6               	incf	LCD_Set_Cursor@b,f
  1431  0E4D  3002               	movlw	2
  1432  0E4E  160A  118A  245F  120A  158A  	fcall	_LCD_Set_Cursor
  1433  0E53                     l3497:
  1434                           
  1435                           ;P1_main_M.c: 132:         LCD_Write_String(ADC0);
  1436  0E53  30C3               	movlw	(low (_ADC0| 0))& (0+255)
  1437  0E54  00F7               	movwf	LCD_Write_String@a
  1438  0E55  3000               	movlw	0
  1439  0E56  00F8               	movwf	LCD_Write_String@a+1
  1440  0E57  160A  118A  2419  120A  158A  	fcall	_LCD_Write_String
  1441  0E5C                     l3499:
  1442                           
  1443                           ;P1_main_M.c: 133:         LCD_Set_Cursor(2,4);
  1444  0E5C  3004               	movlw	4
  1445  0E5D  1683               	bsf	3,5	;RP0=1, select bank1
  1446  0E5E  1303               	bcf	3,6	;RP1=0, select bank1
  1447  0E5F  00E2               	movwf	??_main^(0+128)
  1448  0E60  0862               	movf	??_main^(0+128),w
  1449  0E61  00F6               	movwf	LCD_Set_Cursor@b
  1450  0E62  3002               	movlw	2
  1451  0E63  160A  118A  245F  120A  158A  	fcall	_LCD_Set_Cursor
  1452  0E68                     l3501:
  1453                           
  1454                           ;P1_main_M.c: 134:         LCD_Write_String("V");
  1455  0E68  300C               	movlw	(low ((STR_4-__stringbase)| (0+32768)))& (0+255)
  1456  0E69  00F7               	movwf	LCD_Write_String@a
  1457  0E6A  3080               	movlw	128
  1458  0E6B  00F8               	movwf	LCD_Write_String@a+1
  1459  0E6C  160A  118A  2419  120A  158A  	fcall	_LCD_Write_String
  1460  0E71                     l3503:
  1461                           
  1462                           ;P1_main_M.c: 135:         LCD_Set_Cursor(2,7);
  1463  0E71  3007               	movlw	7
  1464  0E72  1683               	bsf	3,5	;RP0=1, select bank1
  1465  0E73  1303               	bcf	3,6	;RP1=0, select bank1
  1466  0E74  00E2               	movwf	??_main^(0+128)
  1467  0E75  0862               	movf	??_main^(0+128),w
  1468  0E76  00F6               	movwf	LCD_Set_Cursor@b
  1469  0E77  3002               	movlw	2
  1470  0E78  160A  118A  245F  120A  158A  	fcall	_LCD_Set_Cursor
  1471  0E7D                     l3505:
  1472                           
  1473                           ;P1_main_M.c: 136:         LCD_Write_String(ADC1);
  1474  0E7D  30B9               	movlw	(low (_ADC1| 0))& (0+255)
  1475  0E7E  00F7               	movwf	LCD_Write_String@a
  1476  0E7F  3000               	movlw	0
  1477  0E80  00F8               	movwf	LCD_Write_String@a+1
  1478  0E81  160A  118A  2419  120A  158A  	fcall	_LCD_Write_String
  1479  0E86                     l3507:
  1480                           
  1481                           ;P1_main_M.c: 137:         LCD_Set_Cursor(2,11);
  1482  0E86  300B               	movlw	11
  1483  0E87  1683               	bsf	3,5	;RP0=1, select bank1
  1484  0E88  1303               	bcf	3,6	;RP1=0, select bank1
  1485  0E89  00E2               	movwf	??_main^(0+128)
  1486  0E8A  0862               	movf	??_main^(0+128),w
  1487  0E8B  00F6               	movwf	LCD_Set_Cursor@b
  1488  0E8C  3002               	movlw	2
  1489  0E8D  160A  118A  245F  120A  158A  	fcall	_LCD_Set_Cursor
  1490  0E92                     l3509:
  1491                           
  1492                           ;P1_main_M.c: 138:         LCD_Write_String("'");
  1493  0E92  300A               	movlw	(low ((STR_5-__stringbase)| (0+32768)))& (0+255)
  1494  0E93  00F7               	movwf	LCD_Write_String@a
  1495  0E94  3080               	movlw	128
  1496  0E95  00F8               	movwf	LCD_Write_String@a+1
  1497  0E96  160A  118A  2419  120A  158A  	fcall	_LCD_Write_String
  1498  0E9B                     l3511:
  1499                           
  1500                           ;P1_main_M.c: 139:         LCD_Set_Cursor(2,14);
  1501  0E9B  300E               	movlw	14
  1502  0E9C  1683               	bsf	3,5	;RP0=1, select bank1
  1503  0E9D  1303               	bcf	3,6	;RP1=0, select bank1
  1504  0E9E  00E2               	movwf	??_main^(0+128)
  1505  0E9F  0862               	movf	??_main^(0+128),w
  1506  0EA0  00F6               	movwf	LCD_Set_Cursor@b
  1507  0EA1  3002               	movlw	2
  1508  0EA2  160A  118A  245F  120A  158A  	fcall	_LCD_Set_Cursor
  1509  0EA7                     l3513:
  1510                           
  1511                           ;P1_main_M.c: 140:         LCD_Write_String(contador);
  1512  0EA7  30AF               	movlw	(low (_contador| 0))& (0+255)
  1513  0EA8  00F7               	movwf	LCD_Write_String@a
  1514  0EA9  3000               	movlw	0
  1515  0EAA  00F8               	movwf	LCD_Write_String@a+1
  1516  0EAB  160A  118A  2419  120A  158A  	fcall	_LCD_Write_String
  1517  0EB0                     l3515:
  1518                           
  1519                           ;P1_main_M.c: 141:         _delay((unsigned long)((2000)*(4000000/4000.0)));
  1520  0EB0  300B               	movlw	11
  1521  0EB1  1683               	bsf	3,5	;RP0=1, select bank1
  1522  0EB2  1303               	bcf	3,6	;RP1=0, select bank1
  1523  0EB3  00E4               	movwf	(??_main^(0+128)+2)
  1524  0EB4  3026               	movlw	38
  1525  0EB5  00E3               	movwf	(??_main^(0+128)+1)
  1526  0EB6  305D               	movlw	93
  1527  0EB7  00E2               	movwf	??_main^(0+128)
  1528  0EB8                     u4927:
  1529  0EB8  0BE2               	decfsz	??_main^(0+128),f
  1530  0EB9  2EB8               	goto	u4927
  1531  0EBA  0BE3               	decfsz	(??_main^(0+128)+1),f
  1532  0EBB  2EB8               	goto	u4927
  1533  0EBC  0BE4               	decfsz	(??_main^(0+128)+2),f
  1534  0EBD  2EB8               	goto	u4927
  1535  0EBE                     l3517:
  1536                           
  1537                           ;P1_main_M.c: 144:     Temp_conversor = temperature - 77 ;
  1538  0EBE  1683               	bsf	3,5	;RP0=1, select bank1
  1539  0EBF  1303               	bcf	3,6	;RP1=0, select bank1
  1540  0EC0  082E               	movf	_temperature^(0+128),w	;volatile
  1541  0EC1  3EB3               	addlw	179
  1542  0EC2  00E2               	movwf	??_main^(0+128)
  1543  0EC3  0862               	movf	??_main^(0+128),w
  1544  0EC4  00AC               	movwf	_Temp_conversor^(0+128)
  1545  0EC5                     l3519:
  1546                           
  1547                           ;P1_main_M.c: 146:     Pot_conversor = 0;
  1548  0EC5  3000               	movlw	0
  1549  0EC6  00A3               	movwf	(_Pot_conversor+3)^(0+128)
  1550  0EC7  3000               	movlw	0
  1551  0EC8  00A2               	movwf	(_Pot_conversor+2)^(0+128)
  1552  0EC9  3000               	movlw	0
  1553  0ECA  00A1               	movwf	(_Pot_conversor+1)^(0+128)
  1554  0ECB  3000               	movlw	0
  1555  0ECC  00A0               	movwf	_Pot_conversor^(0+128)
  1556  0ECD                     l3521:
  1557                           
  1558                           ;P1_main_M.c: 148:     Pot_conversor = (POT / (float) 255)*5;
  1559  0ECD  3040               	movlw	64
  1560  0ECE  1283               	bcf	3,5	;RP0=0, select bank0
  1561  0ECF  1303               	bcf	3,6	;RP1=0, select bank0
  1562  0ED0  00D4               	movwf	___flmul@b+3
  1563  0ED1  30A0               	movlw	160
  1564  0ED2  00D3               	movwf	___flmul@b+2
  1565  0ED3  3000               	movlw	0
  1566  0ED4  00D2               	movwf	___flmul@b+1
  1567  0ED5  3000               	movlw	0
  1568  0ED6  00D1               	movwf	___flmul@b
  1569  0ED7  3043               	movlw	67
  1570  0ED8  00BA               	movwf	___fldiv@a+3
  1571  0ED9  307F               	movlw	127
  1572  0EDA  00B9               	movwf	___fldiv@a+2
  1573  0EDB  3000               	movlw	0
  1574  0EDC  00B8               	movwf	___fldiv@a+1
  1575  0EDD  3000               	movlw	0
  1576  0EDE  00B7               	movwf	___fldiv@a
  1577  0EDF  1683               	bsf	3,5	;RP0=1, select bank1
  1578  0EE0  1303               	bcf	3,6	;RP1=0, select bank1
  1579  0EE1  082D               	movf	_POT^(0+128),w	;volatile
  1580  0EE2  00E2               	movwf	??_main^(0+128)
  1581  0EE3  01E3               	clrf	(??_main^(0+128)+1)
  1582  0EE4  01E4               	clrf	(??_main^(0+128)+2)
  1583  0EE5  01E5               	clrf	(??_main^(0+128)+3)
  1584  0EE6  0865               	movf	(??_main+3)^(0+128),w
  1585  0EE7  1283               	bcf	3,5	;RP0=0, select bank0
  1586  0EE8  1303               	bcf	3,6	;RP1=0, select bank0
  1587  0EE9  00AC               	movwf	___xxtofl@val+3
  1588  0EEA  1683               	bsf	3,5	;RP0=1, select bank1
  1589  0EEB  1303               	bcf	3,6	;RP1=0, select bank1
  1590  0EEC  0864               	movf	(??_main+2)^(0+128),w
  1591  0EED  1283               	bcf	3,5	;RP0=0, select bank0
  1592  0EEE  1303               	bcf	3,6	;RP1=0, select bank0
  1593  0EEF  00AB               	movwf	___xxtofl@val+2
  1594  0EF0  1683               	bsf	3,5	;RP0=1, select bank1
  1595  0EF1  1303               	bcf	3,6	;RP1=0, select bank1
  1596  0EF2  0863               	movf	(??_main+1)^(0+128),w
  1597  0EF3  1283               	bcf	3,5	;RP0=0, select bank0
  1598  0EF4  1303               	bcf	3,6	;RP1=0, select bank0
  1599  0EF5  00AA               	movwf	___xxtofl@val+1
  1600  0EF6  1683               	bsf	3,5	;RP0=1, select bank1
  1601  0EF7  1303               	bcf	3,6	;RP1=0, select bank1
  1602  0EF8  0862               	movf	??_main^(0+128),w
  1603  0EF9  1283               	bcf	3,5	;RP0=0, select bank0
  1604  0EFA  1303               	bcf	3,6	;RP1=0, select bank0
  1605  0EFB  00A9               	movwf	___xxtofl@val
  1606  0EFC  3001               	movlw	1
  1607  0EFD  160A  118A  2744  120A  158A  	fcall	___xxtofl
  1608  0F02  1283               	bcf	3,5	;RP0=0, select bank0
  1609  0F03  1303               	bcf	3,6	;RP1=0, select bank0
  1610  0F04  082C               	movf	?___xxtofl+3,w
  1611  0F05  00BE               	movwf	___fldiv@b+3
  1612  0F06  082B               	movf	?___xxtofl+2,w
  1613  0F07  00BD               	movwf	___fldiv@b+2
  1614  0F08  082A               	movf	?___xxtofl+1,w
  1615  0F09  00BC               	movwf	___fldiv@b+1
  1616  0F0A  0829               	movf	?___xxtofl,w
  1617  0F0B  00BB               	movwf	___fldiv@b
  1618  0F0C  120A  158A  2083  120A  158A  	fcall	___fldiv
  1619  0F11  1283               	bcf	3,5	;RP0=0, select bank0
  1620  0F12  1303               	bcf	3,6	;RP1=0, select bank0
  1621  0F13  083A               	movf	?___fldiv+3,w
  1622  0F14  00D8               	movwf	___flmul@a+3
  1623  0F15  0839               	movf	?___fldiv+2,w
  1624  0F16  00D7               	movwf	___flmul@a+2
  1625  0F17  0838               	movf	?___fldiv+1,w
  1626  0F18  00D6               	movwf	___flmul@a+1
  1627  0F19  0837               	movf	?___fldiv,w
  1628  0F1A  00D5               	movwf	___flmul@a
  1629  0F1B  120A  118A  2480  120A  158A  	fcall	___flmul
  1630  0F20  1283               	bcf	3,5	;RP0=0, select bank0
  1631  0F21  1303               	bcf	3,6	;RP1=0, select bank0
  1632  0F22  0854               	movf	?___flmul+3,w
  1633  0F23  1683               	bsf	3,5	;RP0=1, select bank1
  1634  0F24  1303               	bcf	3,6	;RP1=0, select bank1
  1635  0F25  00A3               	movwf	(_Pot_conversor+3)^(0+128)
  1636  0F26  1283               	bcf	3,5	;RP0=0, select bank0
  1637  0F27  1303               	bcf	3,6	;RP1=0, select bank0
  1638  0F28  0853               	movf	?___flmul+2,w
  1639  0F29  1683               	bsf	3,5	;RP0=1, select bank1
  1640  0F2A  1303               	bcf	3,6	;RP1=0, select bank1
  1641  0F2B  00A2               	movwf	(_Pot_conversor+2)^(0+128)
  1642  0F2C  1283               	bcf	3,5	;RP0=0, select bank0
  1643  0F2D  1303               	bcf	3,6	;RP1=0, select bank0
  1644  0F2E  0852               	movf	?___flmul+1,w
  1645  0F2F  1683               	bsf	3,5	;RP0=1, select bank1
  1646  0F30  1303               	bcf	3,6	;RP1=0, select bank1
  1647  0F31  00A1               	movwf	(_Pot_conversor+1)^(0+128)
  1648  0F32  1283               	bcf	3,5	;RP0=0, select bank0
  1649  0F33  1303               	bcf	3,6	;RP1=0, select bank0
  1650  0F34  0851               	movf	?___flmul,w
  1651  0F35  1683               	bsf	3,5	;RP0=1, select bank1
  1652  0F36  1303               	bcf	3,6	;RP1=0, select bank1
  1653  0F37  00A0               	movwf	_Pot_conversor^(0+128)
  1654  0F38                     l3523:
  1655                           
  1656                           ;P1_main_M.c: 150:     ADC_convert(ADC0, Pot_conversor, 2);
  1657  0F38  0823               	movf	(_Pot_conversor+3)^(0+128),w
  1658  0F39  00D0               	movwf	(ADC_convert@a+3)^(0+128)
  1659  0F3A  0822               	movf	(_Pot_conversor+2)^(0+128),w
  1660  0F3B  00CF               	movwf	(ADC_convert@a+2)^(0+128)
  1661  0F3C  0821               	movf	(_Pot_conversor+1)^(0+128),w
  1662  0F3D  00CE               	movwf	(ADC_convert@a+1)^(0+128)
  1663  0F3E  0820               	movf	_Pot_conversor^(0+128),w
  1664  0F3F  00CD               	movwf	ADC_convert@a^(0+128)
  1665  0F40  3002               	movlw	2
  1666  0F41  00D1               	movwf	ADC_convert@place^(0+128)
  1667  0F42  3000               	movlw	0
  1668  0F43  00D2               	movwf	(ADC_convert@place^(0+128)+1)
  1669  0F44  30C3               	movlw	(low (_ADC0| 0))& (0+255)
  1670  0F45  120A  118A  201E  120A  158A  	fcall	_ADC_convert
  1671  0F4A                     l3525:
  1672                           
  1673                           ;P1_main_M.c: 152:     ADC_convert(ADC1, Temp_conversor, 2);
  1674  0F4A  1683               	bsf	3,5	;RP0=1, select bank1
  1675  0F4B  1303               	bcf	3,6	;RP1=0, select bank1
  1676  0F4C  082C               	movf	_Temp_conversor^(0+128),w
  1677  0F4D  00E2               	movwf	??_main^(0+128)
  1678  0F4E  01E3               	clrf	(??_main^(0+128)+1)
  1679  0F4F  01E4               	clrf	(??_main^(0+128)+2)
  1680  0F50  01E5               	clrf	(??_main^(0+128)+3)
  1681  0F51  0865               	movf	(??_main+3)^(0+128),w
  1682  0F52  1283               	bcf	3,5	;RP0=0, select bank0
  1683  0F53  1303               	bcf	3,6	;RP1=0, select bank0
  1684  0F54  00AC               	movwf	___xxtofl@val+3
  1685  0F55  1683               	bsf	3,5	;RP0=1, select bank1
  1686  0F56  1303               	bcf	3,6	;RP1=0, select bank1
  1687  0F57  0864               	movf	(??_main+2)^(0+128),w
  1688  0F58  1283               	bcf	3,5	;RP0=0, select bank0
  1689  0F59  1303               	bcf	3,6	;RP1=0, select bank0
  1690  0F5A  00AB               	movwf	___xxtofl@val+2
  1691  0F5B  1683               	bsf	3,5	;RP0=1, select bank1
  1692  0F5C  1303               	bcf	3,6	;RP1=0, select bank1
  1693  0F5D  0863               	movf	(??_main+1)^(0+128),w
  1694  0F5E  1283               	bcf	3,5	;RP0=0, select bank0
  1695  0F5F  1303               	bcf	3,6	;RP1=0, select bank0
  1696  0F60  00AA               	movwf	___xxtofl@val+1
  1697  0F61  1683               	bsf	3,5	;RP0=1, select bank1
  1698  0F62  1303               	bcf	3,6	;RP1=0, select bank1
  1699  0F63  0862               	movf	??_main^(0+128),w
  1700  0F64  1283               	bcf	3,5	;RP0=0, select bank0
  1701  0F65  1303               	bcf	3,6	;RP1=0, select bank0
  1702  0F66  00A9               	movwf	___xxtofl@val
  1703  0F67  3000               	movlw	0
  1704  0F68  160A  118A  2744  120A  158A  	fcall	___xxtofl
  1705  0F6D  1283               	bcf	3,5	;RP0=0, select bank0
  1706  0F6E  1303               	bcf	3,6	;RP1=0, select bank0
  1707  0F6F  082C               	movf	?___xxtofl+3,w
  1708  0F70  1683               	bsf	3,5	;RP0=1, select bank1
  1709  0F71  1303               	bcf	3,6	;RP1=0, select bank1
  1710  0F72  00E9               	movwf	(_main$1024+3)^(0+128)
  1711  0F73  1283               	bcf	3,5	;RP0=0, select bank0
  1712  0F74  1303               	bcf	3,6	;RP1=0, select bank0
  1713  0F75  082B               	movf	?___xxtofl+2,w
  1714  0F76  1683               	bsf	3,5	;RP0=1, select bank1
  1715  0F77  1303               	bcf	3,6	;RP1=0, select bank1
  1716  0F78  00E8               	movwf	(_main$1024+2)^(0+128)
  1717  0F79  1283               	bcf	3,5	;RP0=0, select bank0
  1718  0F7A  1303               	bcf	3,6	;RP1=0, select bank0
  1719  0F7B  082A               	movf	?___xxtofl+1,w
  1720  0F7C  1683               	bsf	3,5	;RP0=1, select bank1
  1721  0F7D  1303               	bcf	3,6	;RP1=0, select bank1
  1722  0F7E  00E7               	movwf	(_main$1024+1)^(0+128)
  1723  0F7F  1283               	bcf	3,5	;RP0=0, select bank0
  1724  0F80  1303               	bcf	3,6	;RP1=0, select bank0
  1725  0F81  0829               	movf	?___xxtofl,w
  1726  0F82  1683               	bsf	3,5	;RP0=1, select bank1
  1727  0F83  1303               	bcf	3,6	;RP1=0, select bank1
  1728  0F84  00E6               	movwf	_main$1024^(0+128)
  1729  0F85                     l3527:
  1730                           
  1731                           ;P1_main_M.c: 152:     ADC_convert(ADC1, Temp_conversor, 2);
  1732  0F85  0869               	movf	(_main$1024+3)^(0+128),w
  1733  0F86  00D0               	movwf	(ADC_convert@a+3)^(0+128)
  1734  0F87  0868               	movf	(_main$1024+2)^(0+128),w
  1735  0F88  00CF               	movwf	(ADC_convert@a+2)^(0+128)
  1736  0F89  0867               	movf	(_main$1024+1)^(0+128),w
  1737  0F8A  00CE               	movwf	(ADC_convert@a+1)^(0+128)
  1738  0F8B  0866               	movf	_main$1024^(0+128),w
  1739  0F8C  00CD               	movwf	ADC_convert@a^(0+128)
  1740  0F8D  3002               	movlw	2
  1741  0F8E  00D1               	movwf	ADC_convert@place^(0+128)
  1742  0F8F  3000               	movlw	0
  1743  0F90  00D2               	movwf	(ADC_convert@place^(0+128)+1)
  1744  0F91  30B9               	movlw	(low (_ADC1| 0))& (0+255)
  1745  0F92  120A  118A  201E  120A  158A  	fcall	_ADC_convert
  1746  0F97                     l3529:
  1747                           
  1748                           ;P1_main_M.c: 154:     Cont_conversor = division(counter);
  1749  0F97  1683               	bsf	3,5	;RP0=1, select bank1
  1750  0F98  1303               	bcf	3,6	;RP1=0, select bank1
  1751  0F99  0827               	movf	(_counter+3)^(0+128),w
  1752  0F9A  00F5               	movwf	___fltol@f1+3
  1753  0F9B  0826               	movf	(_counter+2)^(0+128),w
  1754  0F9C  00F4               	movwf	___fltol@f1+2
  1755  0F9D  0825               	movf	(_counter+1)^(0+128),w
  1756  0F9E  00F3               	movwf	___fltol@f1+1
  1757  0F9F  0824               	movf	_counter^(0+128),w
  1758  0FA0  00F2               	movwf	___fltol@f1
  1759  0FA1  120A  158A  2007  120A  158A  	fcall	___fltol
  1760  0FA6  0872               	movf	?___fltol,w
  1761  0FA7  160A  118A  256D  120A  158A  	fcall	_division
  1762  0FAC  1683               	bsf	3,5	;RP0=1, select bank1
  1763  0FAD  1303               	bcf	3,6	;RP1=0, select bank1
  1764  0FAE  00E2               	movwf	??_main^(0+128)
  1765  0FAF  0862               	movf	??_main^(0+128),w
  1766  0FB0  00AB               	movwf	_Cont_conversor^(0+128)
  1767  0FB1                     l3531:
  1768                           
  1769                           ;P1_main_M.c: 156:     ADC_convert(contador, Cont_conversor, 2);
  1770  0FB1  082B               	movf	_Cont_conversor^(0+128),w
  1771  0FB2  00E2               	movwf	??_main^(0+128)
  1772  0FB3  01E3               	clrf	(??_main^(0+128)+1)
  1773  0FB4  01E4               	clrf	(??_main^(0+128)+2)
  1774  0FB5  01E5               	clrf	(??_main^(0+128)+3)
  1775  0FB6  0865               	movf	(??_main+3)^(0+128),w
  1776  0FB7  1283               	bcf	3,5	;RP0=0, select bank0
  1777  0FB8  1303               	bcf	3,6	;RP1=0, select bank0
  1778  0FB9  00AC               	movwf	___xxtofl@val+3
  1779  0FBA  1683               	bsf	3,5	;RP0=1, select bank1
  1780  0FBB  1303               	bcf	3,6	;RP1=0, select bank1
  1781  0FBC  0864               	movf	(??_main+2)^(0+128),w
  1782  0FBD  1283               	bcf	3,5	;RP0=0, select bank0
  1783  0FBE  1303               	bcf	3,6	;RP1=0, select bank0
  1784  0FBF  00AB               	movwf	___xxtofl@val+2
  1785  0FC0  1683               	bsf	3,5	;RP0=1, select bank1
  1786  0FC1  1303               	bcf	3,6	;RP1=0, select bank1
  1787  0FC2  0863               	movf	(??_main+1)^(0+128),w
  1788  0FC3  1283               	bcf	3,5	;RP0=0, select bank0
  1789  0FC4  1303               	bcf	3,6	;RP1=0, select bank0
  1790  0FC5  00AA               	movwf	___xxtofl@val+1
  1791  0FC6  1683               	bsf	3,5	;RP0=1, select bank1
  1792  0FC7  1303               	bcf	3,6	;RP1=0, select bank1
  1793  0FC8  0862               	movf	??_main^(0+128),w
  1794  0FC9  1283               	bcf	3,5	;RP0=0, select bank0
  1795  0FCA  1303               	bcf	3,6	;RP1=0, select bank0
  1796  0FCB  00A9               	movwf	___xxtofl@val
  1797  0FCC  3000               	movlw	0
  1798  0FCD  160A  118A  2744  120A  158A  	fcall	___xxtofl
  1799  0FD2  1283               	bcf	3,5	;RP0=0, select bank0
  1800  0FD3  1303               	bcf	3,6	;RP1=0, select bank0
  1801  0FD4  082C               	movf	?___xxtofl+3,w
  1802  0FD5  1683               	bsf	3,5	;RP0=1, select bank1
  1803  0FD6  1303               	bcf	3,6	;RP1=0, select bank1
  1804  0FD7  00E9               	movwf	(_main$1024+3)^(0+128)
  1805  0FD8  1283               	bcf	3,5	;RP0=0, select bank0
  1806  0FD9  1303               	bcf	3,6	;RP1=0, select bank0
  1807  0FDA  082B               	movf	?___xxtofl+2,w
  1808  0FDB  1683               	bsf	3,5	;RP0=1, select bank1
  1809  0FDC  1303               	bcf	3,6	;RP1=0, select bank1
  1810  0FDD  00E8               	movwf	(_main$1024+2)^(0+128)
  1811  0FDE  1283               	bcf	3,5	;RP0=0, select bank0
  1812  0FDF  1303               	bcf	3,6	;RP1=0, select bank0
  1813  0FE0  082A               	movf	?___xxtofl+1,w
  1814  0FE1  1683               	bsf	3,5	;RP0=1, select bank1
  1815  0FE2  1303               	bcf	3,6	;RP1=0, select bank1
  1816  0FE3  00E7               	movwf	(_main$1024+1)^(0+128)
  1817  0FE4  1283               	bcf	3,5	;RP0=0, select bank0
  1818  0FE5  1303               	bcf	3,6	;RP1=0, select bank0
  1819  0FE6  0829               	movf	?___xxtofl,w
  1820  0FE7  1683               	bsf	3,5	;RP0=1, select bank1
  1821  0FE8  1303               	bcf	3,6	;RP1=0, select bank1
  1822  0FE9  00E6               	movwf	_main$1024^(0+128)
  1823  0FEA                     l3533:
  1824                           
  1825                           ;P1_main_M.c: 156:     ADC_convert(contador, Cont_conversor, 2);
  1826  0FEA  0869               	movf	(_main$1024+3)^(0+128),w
  1827  0FEB  00D0               	movwf	(ADC_convert@a+3)^(0+128)
  1828  0FEC  0868               	movf	(_main$1024+2)^(0+128),w
  1829  0FED  00CF               	movwf	(ADC_convert@a+2)^(0+128)
  1830  0FEE  0867               	movf	(_main$1024+1)^(0+128),w
  1831  0FEF  00CE               	movwf	(ADC_convert@a+1)^(0+128)
  1832  0FF0  0866               	movf	_main$1024^(0+128),w
  1833  0FF1  00CD               	movwf	ADC_convert@a^(0+128)
  1834  0FF2  3002               	movlw	2
  1835  0FF3  00D1               	movwf	ADC_convert@place^(0+128)
  1836  0FF4  3000               	movlw	0
  1837  0FF5  00D2               	movwf	(ADC_convert@place^(0+128)+1)
  1838  0FF6  30AF               	movlw	(low (_contador| 0))& (0+255)
  1839  0FF7  120A  118A  201E  120A  158A  	fcall	_ADC_convert
  1840  0FFC  2CF7               	goto	l96
  1841  0FFD  120A  118A  280C   	ljmp	start
  1842  1000                     __end_of_main:
  1843                           
  1844                           	psect	text1
  1845  1371                     __ptext1:	
  1846 ;; *************** function _setup *****************
  1847 ;; Defined at:
  1848 ;;		line 231 in file "P1_main_M.c"
  1849 ;; Parameters:    Size  Location     Type
  1850 ;;		None
  1851 ;; Auto vars:     Size  Location     Type
  1852 ;;		None
  1853 ;; Return value:  Size  Location     Type
  1854 ;;                  1    wreg      void 
  1855 ;; Registers used:
  1856 ;;		wreg, status,2, status,0, pclath, cstack
  1857 ;; Tracked objects:
  1858 ;;		On entry : 0/0
  1859 ;;		On exit  : 0/0
  1860 ;;		Unchanged: 0/0
  1861 ;; Data sizes:     COMMON   BANK0   BANK1   BANK3   BANK2
  1862 ;;      Params:         0       0       0       0       0
  1863 ;;      Locals:         0       0       0       0       0
  1864 ;;      Temps:          0       0       0       0       0
  1865 ;;      Totals:         0       0       0       0       0
  1866 ;;Total ram usage:        0 bytes
  1867 ;; Hardware stack levels used:    1
  1868 ;; Hardware stack levels required when called:    3
  1869 ;; This function calls:
  1870 ;;		_I2C_Master_Init
  1871 ;; This function is called by:
  1872 ;;		_main
  1873 ;; This function uses a non-reentrant model
  1874 ;;
  1875                           
  1876                           
  1877                           ;psect for function _setup
  1878  1371                     _setup:
  1879  1371                     l3299:	
  1880                           ;incstack = 0
  1881                           ; Regs used in _setup: [wreg+status,2+status,0+pclath+cstack]
  1882                           
  1883                           
  1884                           ;P1_main_M.c: 233:     ANSEL = 0;
  1885  1371  1683               	bsf	3,5	;RP0=1, select bank3
  1886  1372  1703               	bsf	3,6	;RP1=1, select bank3
  1887  1373  0188               	clrf	8	;volatile
  1888                           
  1889                           ;P1_main_M.c: 234:     ANSELH = 0;
  1890  1374  0189               	clrf	9	;volatile
  1891  1375                     l3301:
  1892                           
  1893                           ;P1_main_M.c: 236:     TRISAbits.TRISA0 = 0;
  1894  1375  1683               	bsf	3,5	;RP0=1, select bank1
  1895  1376  1303               	bcf	3,6	;RP1=0, select bank1
  1896  1377  1005               	bcf	5,0	;volatile
  1897  1378                     l3303:
  1898                           
  1899                           ;P1_main_M.c: 237:     TRISAbits.TRISA1 = 0;
  1900  1378  1085               	bcf	5,1	;volatile
  1901  1379                     l3305:
  1902                           
  1903                           ;P1_main_M.c: 238:     TRISAbits.TRISA2 = 0;
  1904  1379  1105               	bcf	5,2	;volatile
  1905  137A                     l3307:
  1906                           
  1907                           ;P1_main_M.c: 239:     TRISAbits.TRISA3 = 0;
  1908  137A  1185               	bcf	5,3	;volatile
  1909                           
  1910                           ;P1_main_M.c: 241:     TRISB = 0;
  1911  137B  0186               	clrf	6	;volatile
  1912                           
  1913                           ;P1_main_M.c: 242:     TRISD = 0;
  1914  137C  0188               	clrf	8	;volatile
  1915                           
  1916                           ;P1_main_M.c: 243:     TRISC = 0;
  1917  137D  0187               	clrf	7	;volatile
  1918  137E                     l3309:
  1919                           
  1920                           ;P1_main_M.c: 244:     TRISEbits.TRISE0 = 0;
  1921  137E  1009               	bcf	9,0	;volatile
  1922  137F                     l3311:
  1923                           
  1924                           ;P1_main_M.c: 245:     TRISEbits.TRISE1 = 0;
  1925  137F  1089               	bcf	9,1	;volatile
  1926                           
  1927                           ;P1_main_M.c: 249:     PORTA = 0x00;
  1928  1380  1283               	bcf	3,5	;RP0=0, select bank0
  1929  1381  1303               	bcf	3,6	;RP1=0, select bank0
  1930  1382  0185               	clrf	5	;volatile
  1931                           
  1932                           ;P1_main_M.c: 250:     PORTB = 0x00;
  1933  1383  0186               	clrf	6	;volatile
  1934                           
  1935                           ;P1_main_M.c: 251:     PORTC = 0x00;
  1936  1384  0187               	clrf	7	;volatile
  1937                           
  1938                           ;P1_main_M.c: 252:     PORTD = 0x00;
  1939  1385  0188               	clrf	8	;volatile
  1940                           
  1941                           ;P1_main_M.c: 253:     PORTE = 0x00;
  1942  1386  0189               	clrf	9	;volatile
  1943  1387                     l3313:
  1944                           
  1945                           ;P1_main_M.c: 257:     OPTION_REGbits.nRBPU = 0;
  1946  1387  1683               	bsf	3,5	;RP0=1, select bank1
  1947  1388  1303               	bcf	3,6	;RP1=0, select bank1
  1948  1389  1381               	bcf	1,7	;volatile
  1949  138A                     l3315:
  1950                           
  1951                           ;P1_main_M.c: 258:     WPUB = 0b11111111;
  1952  138A  30FF               	movlw	255
  1953  138B  0095               	movwf	21	;volatile
  1954  138C                     l3317:
  1955                           
  1956                           ;P1_main_M.c: 259:     IOCBbits.IOCB0 = 1;
  1957  138C  1416               	bsf	22,0	;volatile
  1958  138D                     l3319:
  1959                           
  1960                           ;P1_main_M.c: 260:     IOCBbits.IOCB1 = 1;
  1961  138D  1496               	bsf	22,1	;volatile
  1962  138E                     l3321:
  1963                           
  1964                           ;P1_main_M.c: 261:     IOCBbits.IOCB2 = 1;
  1965  138E  1516               	bsf	22,2	;volatile
  1966  138F                     l3323:
  1967                           
  1968                           ;P1_main_M.c: 262:     IOCBbits.IOCB3 = 1;
  1969  138F  1596               	bsf	22,3	;volatile
  1970  1390                     l3325:
  1971                           
  1972                           ;P1_main_M.c: 263:     IOCBbits.IOCB4 = 1;
  1973  1390  1616               	bsf	22,4	;volatile
  1974  1391                     l3327:
  1975                           
  1976                           ;P1_main_M.c: 264:     IOCBbits.IOCB5 = 1;
  1977  1391  1696               	bsf	22,5	;volatile
  1978  1392                     l3329:
  1979                           
  1980                           ;P1_main_M.c: 265:     IOCBbits.IOCB6 = 1;
  1981  1392  1716               	bsf	22,6	;volatile
  1982  1393                     l3331:
  1983                           
  1984                           ;P1_main_M.c: 266:     IOCBbits.IOCB7 = 1;
  1985  1393  1796               	bsf	22,7	;volatile
  1986  1394                     l3333:
  1987                           
  1988                           ;P1_main_M.c: 270:     OSCCONbits.IRCF2 = 1;
  1989  1394  170F               	bsf	15,6	;volatile
  1990  1395                     l3335:
  1991                           
  1992                           ;P1_main_M.c: 271:     OSCCONbits.IRCF1 = 1;
  1993  1395  168F               	bsf	15,5	;volatile
  1994  1396                     l3337:
  1995                           
  1996                           ;P1_main_M.c: 272:     OSCCONbits.IRCF0 = 1;
  1997  1396  160F               	bsf	15,4	;volatile
  1998  1397                     l3339:
  1999                           
  2000                           ;P1_main_M.c: 273:     OSCCONbits.SCS = 1;
  2001  1397  140F               	bsf	15,0	;volatile
  2002  1398                     l3341:
  2003                           
  2004                           ;P1_main_M.c: 277:     I2C_Master_Init(100000);
  2005  1398  3000               	movlw	0
  2006  1399  1283               	bcf	3,5	;RP0=0, select bank0
  2007  139A  1303               	bcf	3,6	;RP1=0, select bank0
  2008  139B  00A9               	movwf	I2C_Master_Init@c+3
  2009  139C  3001               	movlw	1
  2010  139D  00A8               	movwf	I2C_Master_Init@c+2
  2011  139E  3086               	movlw	134
  2012  139F  00A7               	movwf	I2C_Master_Init@c+1
  2013  13A0  30A0               	movlw	160
  2014  13A1  00A6               	movwf	I2C_Master_Init@c
  2015  13A2  160A  118A  23A8  160A  118A  	fcall	_I2C_Master_Init
  2016  13A7                     l131:
  2017  13A7  0008               	return
  2018  13A8                     __end_of_setup:
  2019                           
  2020                           	psect	text2
  2021  13A8                     __ptext2:	
  2022 ;; *************** function _I2C_Master_Init *****************
  2023 ;; Defined at:
  2024 ;;		line 5 in file "I2C.c"
  2025 ;; Parameters:    Size  Location     Type
  2026 ;;  c               4    6[BANK0 ] const unsigned long 
  2027 ;; Auto vars:     Size  Location     Type
  2028 ;;		None
  2029 ;; Return value:  Size  Location     Type
  2030 ;;                  1    wreg      void 
  2031 ;; Registers used:
  2032 ;;		wreg, status,2, status,0, pclath, cstack
  2033 ;; Tracked objects:
  2034 ;;		On entry : 0/0
  2035 ;;		On exit  : 0/0
  2036 ;;		Unchanged: 0/0
  2037 ;; Data sizes:     COMMON   BANK0   BANK1   BANK3   BANK2
  2038 ;;      Params:         0       4       0       0       0
  2039 ;;      Locals:         0       0       0       0       0
  2040 ;;      Temps:          0       4       0       0       0
  2041 ;;      Totals:         0       8       0       0       0
  2042 ;;Total ram usage:        8 bytes
  2043 ;; Hardware stack levels used:    1
  2044 ;; Hardware stack levels required when called:    2
  2045 ;; This function calls:
  2046 ;;		___lldiv
  2047 ;; This function is called by:
  2048 ;;		_setup
  2049 ;; This function uses a non-reentrant model
  2050 ;;
  2051                           
  2052                           
  2053                           ;psect for function _I2C_Master_Init
  2054  13A8                     _I2C_Master_Init:
  2055  13A8                     l3053:	
  2056                           ;incstack = 0
  2057                           ; Regs used in _I2C_Master_Init: [wreg+status,2+status,0+pclath+cstack]
  2058                           
  2059                           
  2060                           ;I2C.c: 7:     SSPCON = 0b00101000;
  2061  13A8  3028               	movlw	40
  2062  13A9  1283               	bcf	3,5	;RP0=0, select bank0
  2063  13AA  1303               	bcf	3,6	;RP1=0, select bank0
  2064  13AB  0094               	movwf	20	;volatile
  2065  13AC                     l3055:
  2066                           
  2067                           ;I2C.c: 8:     SSPCON2 = 0;
  2068  13AC  1683               	bsf	3,5	;RP0=1, select bank1
  2069  13AD  1303               	bcf	3,6	;RP1=0, select bank1
  2070  13AE  0191               	clrf	17	;volatile
  2071  13AF                     l3057:
  2072                           
  2073                           ;I2C.c: 9:     SSPADD = (8000000/(4*c))-1;
  2074  13AF  1283               	bcf	3,5	;RP0=0, select bank0
  2075  13B0  1303               	bcf	3,6	;RP1=0, select bank0
  2076  13B1  0826               	movf	I2C_Master_Init@c,w
  2077  13B2  00AA               	movwf	??_I2C_Master_Init
  2078  13B3  0827               	movf	I2C_Master_Init@c+1,w
  2079  13B4  00AB               	movwf	??_I2C_Master_Init+1
  2080  13B5  0828               	movf	I2C_Master_Init@c+2,w
  2081  13B6  00AC               	movwf	??_I2C_Master_Init+2
  2082  13B7  0829               	movf	I2C_Master_Init@c+3,w
  2083  13B8  00AD               	movwf	??_I2C_Master_Init+3
  2084  13B9  3002               	movlw	2
  2085  13BA                     u4135:
  2086  13BA  1003               	clrc
  2087  13BB  0DAA               	rlf	??_I2C_Master_Init,f
  2088  13BC  0DAB               	rlf	??_I2C_Master_Init+1,f
  2089  13BD  0DAC               	rlf	??_I2C_Master_Init+2,f
  2090  13BE  0DAD               	rlf	??_I2C_Master_Init+3,f
  2091  13BF                     u4130:
  2092  13BF  3EFF               	addlw	-1
  2093  13C0  1D03               	skipz
  2094  13C1  2BBA               	goto	u4135
  2095  13C2  082D               	movf	??_I2C_Master_Init+3,w
  2096  13C3  00F5               	movwf	___lldiv@divisor+3
  2097  13C4  082C               	movf	??_I2C_Master_Init+2,w
  2098  13C5  00F4               	movwf	___lldiv@divisor+2
  2099  13C6  082B               	movf	??_I2C_Master_Init+1,w
  2100  13C7  00F3               	movwf	___lldiv@divisor+1
  2101  13C8  082A               	movf	??_I2C_Master_Init,w
  2102  13C9  00F2               	movwf	___lldiv@divisor
  2103  13CA  3000               	movlw	0
  2104  13CB  00F9               	movwf	___lldiv@dividend+3
  2105  13CC  307A               	movlw	122
  2106  13CD  00F8               	movwf	___lldiv@dividend+2
  2107  13CE  3012               	movlw	18
  2108  13CF  00F7               	movwf	___lldiv@dividend+1
  2109  13D0  3000               	movlw	0
  2110  13D1  00F6               	movwf	___lldiv@dividend
  2111  13D2  160A  118A  25CF  160A  118A  	fcall	___lldiv
  2112  13D7  0872               	movf	?___lldiv,w
  2113  13D8  3EFF               	addlw	255
  2114  13D9  1683               	bsf	3,5	;RP0=1, select bank1
  2115  13DA  1303               	bcf	3,6	;RP1=0, select bank1
  2116  13DB  0093               	movwf	19	;volatile
  2117  13DC                     l3059:
  2118                           
  2119                           ;I2C.c: 10:     SSPSTAT = 0;
  2120  13DC  0194               	clrf	20	;volatile
  2121  13DD                     l3061:
  2122                           
  2123                           ;I2C.c: 11:     TRISCbits.TRISC3 = 1;
  2124  13DD  1587               	bsf	7,3	;volatile
  2125  13DE                     l3063:
  2126                           
  2127                           ;I2C.c: 12:     TRISCbits.TRISC4 = 1;
  2128  13DE  1607               	bsf	7,4	;volatile
  2129  13DF                     l160:
  2130  13DF  0008               	return
  2131  13E0                     __end_of_I2C_Master_Init:
  2132                           
  2133                           	psect	text3
  2134  15CF                     __ptext3:	
  2135 ;; *************** function ___lldiv *****************
  2136 ;; Defined at:
  2137 ;;		line 5 in file "D:\PrograMicros\pic\sources\c90\common\__lldiv.c"
  2138 ;; Parameters:    Size  Location     Type
  2139 ;;  divisor         4    2[COMMON] unsigned long 
  2140 ;;  dividend        4    6[COMMON] unsigned long 
  2141 ;; Auto vars:     Size  Location     Type
  2142 ;;  quotient        4    1[BANK0 ] unsigned long 
  2143 ;;  counter         1    5[BANK0 ] unsigned char 
  2144 ;; Return value:  Size  Location     Type
  2145 ;;                  4    2[COMMON] unsigned long 
  2146 ;; Registers used:
  2147 ;;		wreg, status,2, status,0
  2148 ;; Tracked objects:
  2149 ;;		On entry : 0/0
  2150 ;;		On exit  : 0/0
  2151 ;;		Unchanged: 0/0
  2152 ;; Data sizes:     COMMON   BANK0   BANK1   BANK3   BANK2
  2153 ;;      Params:         8       0       0       0       0
  2154 ;;      Locals:         0       5       0       0       0
  2155 ;;      Temps:          0       1       0       0       0
  2156 ;;      Totals:         8       6       0       0       0
  2157 ;;Total ram usage:       14 bytes
  2158 ;; Hardware stack levels used:    1
  2159 ;; Hardware stack levels required when called:    1
  2160 ;; This function calls:
  2161 ;;		Nothing
  2162 ;; This function is called by:
  2163 ;;		_I2C_Master_Init
  2164 ;; This function uses a non-reentrant model
  2165 ;;
  2166                           
  2167                           
  2168                           ;psect for function ___lldiv
  2169  15CF                     ___lldiv:
  2170  15CF                     l3015:	
  2171                           ;incstack = 0
  2172                           ; Regs used in ___lldiv: [wreg+status,2+status,0]
  2173                           
  2174  15CF  3000               	movlw	0
  2175  15D0  1283               	bcf	3,5	;RP0=0, select bank0
  2176  15D1  1303               	bcf	3,6	;RP1=0, select bank0
  2177  15D2  00A4               	movwf	___lldiv@quotient+3
  2178  15D3  3000               	movlw	0
  2179  15D4  00A3               	movwf	___lldiv@quotient+2
  2180  15D5  3000               	movlw	0
  2181  15D6  00A2               	movwf	___lldiv@quotient+1
  2182  15D7  3000               	movlw	0
  2183  15D8  00A1               	movwf	___lldiv@quotient
  2184  15D9  0875               	movf	___lldiv@divisor+3,w
  2185  15DA  0474               	iorwf	___lldiv@divisor+2,w
  2186  15DB  0473               	iorwf	___lldiv@divisor+1,w
  2187  15DC  0472               	iorwf	___lldiv@divisor,w
  2188  15DD  1903               	skipnz
  2189  15DE  2DE0               	goto	u4031
  2190  15DF  2DE1               	goto	u4030
  2191  15E0                     u4031:
  2192  15E0  2E2E               	goto	l3035
  2193  15E1                     u4030:
  2194  15E1                     l3017:
  2195  15E1  01A5               	clrf	___lldiv@counter
  2196  15E2  0AA5               	incf	___lldiv@counter,f
  2197  15E3  2DF1               	goto	l3021
  2198  15E4                     l3019:
  2199  15E4  3001               	movlw	1
  2200  15E5  00A0               	movwf	??___lldiv
  2201  15E6                     u4045:
  2202  15E6  1003               	clrc
  2203  15E7  0DF2               	rlf	___lldiv@divisor,f
  2204  15E8  0DF3               	rlf	___lldiv@divisor+1,f
  2205  15E9  0DF4               	rlf	___lldiv@divisor+2,f
  2206  15EA  0DF5               	rlf	___lldiv@divisor+3,f
  2207  15EB  0BA0               	decfsz	??___lldiv,f
  2208  15EC  2DE6               	goto	u4045
  2209  15ED  3001               	movlw	1
  2210  15EE  00A0               	movwf	??___lldiv
  2211  15EF  0820               	movf	??___lldiv,w
  2212  15F0  07A5               	addwf	___lldiv@counter,f
  2213  15F1                     l3021:
  2214  15F1  1FF5               	btfss	___lldiv@divisor+3,7
  2215  15F2  2DF4               	goto	u4051
  2216  15F3  2DF5               	goto	u4050
  2217  15F4                     u4051:
  2218  15F4  2DE4               	goto	l3019
  2219  15F5                     u4050:
  2220  15F5                     l3023:
  2221  15F5  3001               	movlw	1
  2222  15F6  00A0               	movwf	??___lldiv
  2223  15F7                     u4065:
  2224  15F7  1003               	clrc
  2225  15F8  0DA1               	rlf	___lldiv@quotient,f
  2226  15F9  0DA2               	rlf	___lldiv@quotient+1,f
  2227  15FA  0DA3               	rlf	___lldiv@quotient+2,f
  2228  15FB  0DA4               	rlf	___lldiv@quotient+3,f
  2229  15FC  0BA0               	decfsz	??___lldiv,f
  2230  15FD  2DF7               	goto	u4065
  2231  15FE                     l3025:
  2232  15FE  0875               	movf	___lldiv@divisor+3,w
  2233  15FF  0279               	subwf	___lldiv@dividend+3,w
  2234  1600  1D03               	skipz
  2235  1601  2E0C               	goto	u4075
  2236  1602  0874               	movf	___lldiv@divisor+2,w
  2237  1603  0278               	subwf	___lldiv@dividend+2,w
  2238  1604  1D03               	skipz
  2239  1605  2E0C               	goto	u4075
  2240  1606  0873               	movf	___lldiv@divisor+1,w
  2241  1607  0277               	subwf	___lldiv@dividend+1,w
  2242  1608  1D03               	skipz
  2243  1609  2E0C               	goto	u4075
  2244  160A  0872               	movf	___lldiv@divisor,w
  2245  160B  0276               	subwf	___lldiv@dividend,w
  2246  160C                     u4075:
  2247  160C  1C03               	skipc
  2248  160D  2E0F               	goto	u4071
  2249  160E  2E10               	goto	u4070
  2250  160F                     u4071:
  2251  160F  2E1F               	goto	l3031
  2252  1610                     u4070:
  2253  1610                     l3027:
  2254  1610  0872               	movf	___lldiv@divisor,w
  2255  1611  02F6               	subwf	___lldiv@dividend,f
  2256  1612  0873               	movf	___lldiv@divisor+1,w
  2257  1613  1C03               	skipc
  2258  1614  0F73               	incfsz	___lldiv@divisor+1,w
  2259  1615  02F7               	subwf	___lldiv@dividend+1,f
  2260  1616  0874               	movf	___lldiv@divisor+2,w
  2261  1617  1C03               	skipc
  2262  1618  0F74               	incfsz	___lldiv@divisor+2,w
  2263  1619  02F8               	subwf	___lldiv@dividend+2,f
  2264  161A  0875               	movf	___lldiv@divisor+3,w
  2265  161B  1C03               	skipc
  2266  161C  0F75               	incfsz	___lldiv@divisor+3,w
  2267  161D  02F9               	subwf	___lldiv@dividend+3,f
  2268  161E                     l3029:
  2269  161E  1421               	bsf	___lldiv@quotient,0
  2270  161F                     l3031:
  2271  161F  3001               	movlw	1
  2272  1620                     u4085:
  2273  1620  1003               	clrc
  2274  1621  0CF5               	rrf	___lldiv@divisor+3,f
  2275  1622  0CF4               	rrf	___lldiv@divisor+2,f
  2276  1623  0CF3               	rrf	___lldiv@divisor+1,f
  2277  1624  0CF2               	rrf	___lldiv@divisor,f
  2278  1625  3EFF               	addlw	-1
  2279  1626  1D03               	skipz
  2280  1627  2E20               	goto	u4085
  2281  1628                     l3033:
  2282  1628  3001               	movlw	1
  2283  1629  02A5               	subwf	___lldiv@counter,f
  2284  162A  1D03               	btfss	3,2
  2285  162B  2E2D               	goto	u4091
  2286  162C  2E2E               	goto	u4090
  2287  162D                     u4091:
  2288  162D  2DF5               	goto	l3023
  2289  162E                     u4090:
  2290  162E                     l3035:
  2291  162E  0824               	movf	___lldiv@quotient+3,w
  2292  162F  00F5               	movwf	?___lldiv+3
  2293  1630  0823               	movf	___lldiv@quotient+2,w
  2294  1631  00F4               	movwf	?___lldiv+2
  2295  1632  0822               	movf	___lldiv@quotient+1,w
  2296  1633  00F3               	movwf	?___lldiv+1
  2297  1634  0821               	movf	___lldiv@quotient,w
  2298  1635  00F2               	movwf	?___lldiv
  2299  1636                     l363:
  2300  1636  0008               	return
  2301  1637                     __end_of___lldiv:
  2302                           
  2303                           	psect	text4
  2304  156D                     __ptext4:	
  2305 ;; *************** function _division *****************
  2306 ;; Defined at:
  2307 ;;		line 164 in file "P1_main_M.c"
  2308 ;; Parameters:    Size  Location     Type
  2309 ;;  value           1    wreg     unsigned char 
  2310 ;; Auto vars:     Size  Location     Type
  2311 ;;  value           1    9[COMMON] unsigned char 
  2312 ;; Return value:  Size  Location     Type
  2313 ;;                  1    wreg      unsigned char 
  2314 ;; Registers used:
  2315 ;;		wreg, status,2, status,0, pclath, cstack
  2316 ;; Tracked objects:
  2317 ;;		On entry : 0/0
  2318 ;;		On exit  : 0/0
  2319 ;;		Unchanged: 0/0
  2320 ;; Data sizes:     COMMON   BANK0   BANK1   BANK3   BANK2
  2321 ;;      Params:         0       0       0       0       0
  2322 ;;      Locals:         1       0       0       0       0
  2323 ;;      Temps:          0       3       0       0       0
  2324 ;;      Totals:         1       3       0       0       0
  2325 ;;Total ram usage:        4 bytes
  2326 ;; Hardware stack levels used:    1
  2327 ;; Hardware stack levels required when called:    2
  2328 ;; This function calls:
  2329 ;;		___awdiv
  2330 ;;		___awmod
  2331 ;; This function is called by:
  2332 ;;		_main
  2333 ;; This function uses a non-reentrant model
  2334 ;;
  2335                           
  2336                           
  2337                           ;psect for function _division
  2338  156D                     _division:
  2339                           
  2340                           ;incstack = 0
  2341                           ; Regs used in _division: [wreg+status,2+status,0+pclath+cstack]
  2342                           ;division@value stored from wreg
  2343  156D  00F9               	movwf	division@value
  2344  156E                     l3453:
  2345                           
  2346                           ;P1_main_M.c: 165:     Centenas = value/50;
  2347  156E  3032               	movlw	50
  2348  156F  00F2               	movwf	___awdiv@divisor
  2349  1570  3000               	movlw	0
  2350  1571  00F3               	movwf	___awdiv@divisor+1
  2351  1572  0879               	movf	division@value,w
  2352  1573  1283               	bcf	3,5	;RP0=0, select bank0
  2353  1574  1303               	bcf	3,6	;RP1=0, select bank0
  2354  1575  00A4               	movwf	??_division
  2355  1576  01A5               	clrf	??_division+1
  2356  1577  0824               	movf	??_division,w
  2357  1578  00F4               	movwf	___awdiv@dividend
  2358  1579  0825               	movf	??_division+1,w
  2359  157A  00F5               	movwf	___awdiv@dividend+1
  2360  157B  160A  118A  2637  160A  118A  	fcall	___awdiv
  2361  1580  0872               	movf	?___awdiv,w
  2362  1581  1283               	bcf	3,5	;RP0=0, select bank0
  2363  1582  1303               	bcf	3,6	;RP1=0, select bank0
  2364  1583  00A6               	movwf	??_division+2
  2365  1584  0826               	movf	??_division+2,w
  2366  1585  00FB               	movwf	_Centenas
  2367                           
  2368                           ;P1_main_M.c: 166:     Residuo = value%100;
  2369  1586  3064               	movlw	100
  2370  1587  00F2               	movwf	___awmod@divisor
  2371  1588  3000               	movlw	0
  2372  1589  00F3               	movwf	___awmod@divisor+1
  2373  158A  0879               	movf	division@value,w
  2374  158B  00A4               	movwf	??_division
  2375  158C  01A5               	clrf	??_division+1
  2376  158D  0824               	movf	??_division,w
  2377  158E  00F4               	movwf	___awmod@dividend
  2378  158F  0825               	movf	??_division+1,w
  2379  1590  00F5               	movwf	___awmod@dividend+1
  2380  1591  160A  118A  24B7  160A  118A  	fcall	___awmod
  2381  1596  0872               	movf	?___awmod,w
  2382  1597  1283               	bcf	3,5	;RP0=0, select bank0
  2383  1598  1303               	bcf	3,6	;RP1=0, select bank0
  2384  1599  00A6               	movwf	??_division+2
  2385  159A  0826               	movf	??_division+2,w
  2386  159B  00FA               	movwf	_Residuo
  2387                           
  2388                           ;P1_main_M.c: 167:     Decenas = Residuo/10;
  2389  159C  300A               	movlw	10
  2390  159D  00F2               	movwf	___awdiv@divisor
  2391  159E  3000               	movlw	0
  2392  159F  00F3               	movwf	___awdiv@divisor+1
  2393  15A0  087A               	movf	_Residuo,w
  2394  15A1  00A4               	movwf	??_division
  2395  15A2  01A5               	clrf	??_division+1
  2396  15A3  0824               	movf	??_division,w
  2397  15A4  00F4               	movwf	___awdiv@dividend
  2398  15A5  0825               	movf	??_division+1,w
  2399  15A6  00F5               	movwf	___awdiv@dividend+1
  2400  15A7  160A  118A  2637  160A  118A  	fcall	___awdiv
  2401  15AC  0872               	movf	?___awdiv,w
  2402  15AD  1283               	bcf	3,5	;RP0=0, select bank0
  2403  15AE  1303               	bcf	3,6	;RP1=0, select bank0
  2404  15AF  00A6               	movwf	??_division+2
  2405  15B0  0826               	movf	??_division+2,w
  2406  15B1  1683               	bsf	3,5	;RP0=1, select bank1
  2407  15B2  1303               	bcf	3,6	;RP1=0, select bank1
  2408  15B3  00AA               	movwf	_Decenas^(0+128)
  2409                           
  2410                           ;P1_main_M.c: 168:     Unidades = Residuo%10;
  2411  15B4  300A               	movlw	10
  2412  15B5  00F2               	movwf	___awmod@divisor
  2413  15B6  3000               	movlw	0
  2414  15B7  00F3               	movwf	___awmod@divisor+1
  2415  15B8  087A               	movf	_Residuo,w
  2416  15B9  1283               	bcf	3,5	;RP0=0, select bank0
  2417  15BA  1303               	bcf	3,6	;RP1=0, select bank0
  2418  15BB  00A4               	movwf	??_division
  2419  15BC  01A5               	clrf	??_division+1
  2420  15BD  0824               	movf	??_division,w
  2421  15BE  00F4               	movwf	___awmod@dividend
  2422  15BF  0825               	movf	??_division+1,w
  2423  15C0  00F5               	movwf	___awmod@dividend+1
  2424  15C1  160A  118A  24B7  160A  118A  	fcall	___awmod
  2425  15C6  0872               	movf	?___awmod,w
  2426  15C7  1283               	bcf	3,5	;RP0=0, select bank0
  2427  15C8  1303               	bcf	3,6	;RP1=0, select bank0
  2428  15C9  00A6               	movwf	??_division+2
  2429  15CA  0826               	movf	??_division+2,w
  2430  15CB  1683               	bsf	3,5	;RP0=1, select bank1
  2431  15CC  1303               	bcf	3,6	;RP1=0, select bank1
  2432  15CD  00A9               	movwf	_Unidades^(0+128)
  2433  15CE                     l102:
  2434  15CE  0008               	return
  2435  15CF                     __end_of_division:
  2436                           
  2437                           	psect	text5
  2438  14B7                     __ptext5:	
  2439 ;; *************** function ___awmod *****************
  2440 ;; Defined at:
  2441 ;;		line 5 in file "D:\PrograMicros\pic\sources\c90\common\awmod.c"
  2442 ;; Parameters:    Size  Location     Type
  2443 ;;  divisor         2    2[COMMON] int 
  2444 ;;  dividend        2    4[COMMON] int 
  2445 ;; Auto vars:     Size  Location     Type
  2446 ;;  sign            1    8[COMMON] unsigned char 
  2447 ;;  counter         1    7[COMMON] unsigned char 
  2448 ;; Return value:  Size  Location     Type
  2449 ;;                  2    2[COMMON] int 
  2450 ;; Registers used:
  2451 ;;		wreg, status,2, status,0
  2452 ;; Tracked objects:
  2453 ;;		On entry : 0/0
  2454 ;;		On exit  : 0/0
  2455 ;;		Unchanged: 0/0
  2456 ;; Data sizes:     COMMON   BANK0   BANK1   BANK3   BANK2
  2457 ;;      Params:         4       0       0       0       0
  2458 ;;      Locals:         2       0       0       0       0
  2459 ;;      Temps:          1       0       0       0       0
  2460 ;;      Totals:         7       0       0       0       0
  2461 ;;Total ram usage:        7 bytes
  2462 ;; Hardware stack levels used:    1
  2463 ;; Hardware stack levels required when called:    1
  2464 ;; This function calls:
  2465 ;;		Nothing
  2466 ;; This function is called by:
  2467 ;;		_division
  2468 ;; This function uses a non-reentrant model
  2469 ;;
  2470                           
  2471                           
  2472                           ;psect for function ___awmod
  2473  14B7                     ___awmod:
  2474  14B7                     l2285:	
  2475                           ;incstack = 0
  2476                           ; Regs used in ___awmod: [wreg+status,2+status,0]
  2477                           
  2478  14B7  01F8               	clrf	___awmod@sign
  2479  14B8                     l2287:
  2480  14B8  1FF5               	btfss	___awmod@dividend+1,7
  2481  14B9  2CBB               	goto	u2801
  2482  14BA  2CBC               	goto	u2800
  2483  14BB                     u2801:
  2484  14BB  2CC3               	goto	l2293
  2485  14BC                     u2800:
  2486  14BC                     l2289:
  2487  14BC  09F4               	comf	___awmod@dividend,f
  2488  14BD  09F5               	comf	___awmod@dividend+1,f
  2489  14BE  0AF4               	incf	___awmod@dividend,f
  2490  14BF  1903               	skipnz
  2491  14C0  0AF5               	incf	___awmod@dividend+1,f
  2492  14C1                     l2291:
  2493  14C1  01F8               	clrf	___awmod@sign
  2494  14C2  0AF8               	incf	___awmod@sign,f
  2495  14C3                     l2293:
  2496  14C3  1FF3               	btfss	___awmod@divisor+1,7
  2497  14C4  2CC6               	goto	u2811
  2498  14C5  2CC7               	goto	u2810
  2499  14C6                     u2811:
  2500  14C6  2CCC               	goto	l2297
  2501  14C7                     u2810:
  2502  14C7                     l2295:
  2503  14C7  09F2               	comf	___awmod@divisor,f
  2504  14C8  09F3               	comf	___awmod@divisor+1,f
  2505  14C9  0AF2               	incf	___awmod@divisor,f
  2506  14CA  1903               	skipnz
  2507  14CB  0AF3               	incf	___awmod@divisor+1,f
  2508  14CC                     l2297:
  2509  14CC  0872               	movf	___awmod@divisor,w
  2510  14CD  0473               	iorwf	___awmod@divisor+1,w
  2511  14CE  1903               	btfsc	3,2
  2512  14CF  2CD1               	goto	u2821
  2513  14D0  2CD2               	goto	u2820
  2514  14D1                     u2821:
  2515  14D1  2D01               	goto	l2315
  2516  14D2                     u2820:
  2517  14D2                     l2299:
  2518  14D2  01F7               	clrf	___awmod@counter
  2519  14D3  0AF7               	incf	___awmod@counter,f
  2520  14D4  2CE0               	goto	l2305
  2521  14D5                     l2301:
  2522  14D5  3001               	movlw	1
  2523  14D6                     u2835:
  2524  14D6  1003               	clrc
  2525  14D7  0DF2               	rlf	___awmod@divisor,f
  2526  14D8  0DF3               	rlf	___awmod@divisor+1,f
  2527  14D9  3EFF               	addlw	-1
  2528  14DA  1D03               	skipz
  2529  14DB  2CD6               	goto	u2835
  2530  14DC                     l2303:
  2531  14DC  3001               	movlw	1
  2532  14DD  00F6               	movwf	??___awmod
  2533  14DE  0876               	movf	??___awmod,w
  2534  14DF  07F7               	addwf	___awmod@counter,f
  2535  14E0                     l2305:
  2536  14E0  1FF3               	btfss	___awmod@divisor+1,7
  2537  14E1  2CE3               	goto	u2841
  2538  14E2  2CE4               	goto	u2840
  2539  14E3                     u2841:
  2540  14E3  2CD5               	goto	l2301
  2541  14E4                     u2840:
  2542  14E4                     l2307:
  2543  14E4  0873               	movf	___awmod@divisor+1,w
  2544  14E5  0275               	subwf	___awmod@dividend+1,w
  2545  14E6  1D03               	skipz
  2546  14E7  2CEA               	goto	u2855
  2547  14E8  0872               	movf	___awmod@divisor,w
  2548  14E9  0274               	subwf	___awmod@dividend,w
  2549  14EA                     u2855:
  2550  14EA  1C03               	skipc
  2551  14EB  2CED               	goto	u2851
  2552  14EC  2CEE               	goto	u2850
  2553  14ED                     u2851:
  2554  14ED  2CF4               	goto	l2311
  2555  14EE                     u2850:
  2556  14EE                     l2309:
  2557  14EE  0872               	movf	___awmod@divisor,w
  2558  14EF  02F4               	subwf	___awmod@dividend,f
  2559  14F0  0873               	movf	___awmod@divisor+1,w
  2560  14F1  1C03               	skipc
  2561  14F2  03F5               	decf	___awmod@dividend+1,f
  2562  14F3  02F5               	subwf	___awmod@dividend+1,f
  2563  14F4                     l2311:
  2564  14F4  3001               	movlw	1
  2565  14F5                     u2865:
  2566  14F5  1003               	clrc
  2567  14F6  0CF3               	rrf	___awmod@divisor+1,f
  2568  14F7  0CF2               	rrf	___awmod@divisor,f
  2569  14F8  3EFF               	addlw	-1
  2570  14F9  1D03               	skipz
  2571  14FA  2CF5               	goto	u2865
  2572  14FB                     l2313:
  2573  14FB  3001               	movlw	1
  2574  14FC  02F7               	subwf	___awmod@counter,f
  2575  14FD  1D03               	btfss	3,2
  2576  14FE  2D00               	goto	u2871
  2577  14FF  2D01               	goto	u2870
  2578  1500                     u2871:
  2579  1500  2CE4               	goto	l2307
  2580  1501                     u2870:
  2581  1501                     l2315:
  2582  1501  0878               	movf	___awmod@sign,w
  2583  1502  1903               	btfsc	3,2
  2584  1503  2D05               	goto	u2881
  2585  1504  2D06               	goto	u2880
  2586  1505                     u2881:
  2587  1505  2D0B               	goto	l2319
  2588  1506                     u2880:
  2589  1506                     l2317:
  2590  1506  09F4               	comf	___awmod@dividend,f
  2591  1507  09F5               	comf	___awmod@dividend+1,f
  2592  1508  0AF4               	incf	___awmod@dividend,f
  2593  1509  1903               	skipnz
  2594  150A  0AF5               	incf	___awmod@dividend+1,f
  2595  150B                     l2319:
  2596  150B  0875               	movf	___awmod@dividend+1,w
  2597  150C  00F3               	movwf	?___awmod+1
  2598  150D  0874               	movf	___awmod@dividend,w
  2599  150E  00F2               	movwf	?___awmod
  2600  150F                     l493:
  2601  150F  0008               	return
  2602  1510                     __end_of___awmod:
  2603                           
  2604                           	psect	text6
  2605  1419                     __ptext6:	
  2606 ;; *************** function _LCD_Write_String *****************
  2607 ;; Defined at:
  2608 ;;		line 93 in file "LCD.c"
  2609 ;; Parameters:    Size  Location     Type
  2610 ;;  a               2    7[COMMON] PTR unsigned char 
  2611 ;;		 -> contador(10), STR_5(2), ADC1(10), STR_4(2), 
  2612 ;;		 -> ADC0(10), STR_3(3), STR_2(3), STR_1(3), 
  2613 ;; Auto vars:     Size  Location     Type
  2614 ;;  i               2    3[BANK0 ] int 
  2615 ;; Return value:  Size  Location     Type
  2616 ;;                  1    wreg      void 
  2617 ;; Registers used:
  2618 ;;		wreg, fsr0l, fsr0h, status,2, status,0, btemp+1, pclath, cstack
  2619 ;; Tracked objects:
  2620 ;;		On entry : 0/0
  2621 ;;		On exit  : 0/0
  2622 ;;		Unchanged: 0/0
  2623 ;; Data sizes:     COMMON   BANK0   BANK1   BANK3   BANK2
  2624 ;;      Params:         2       0       0       0       0
  2625 ;;      Locals:         0       2       0       0       0
  2626 ;;      Temps:          0       3       0       0       0
  2627 ;;      Totals:         2       5       0       0       0
  2628 ;;Total ram usage:        7 bytes
  2629 ;; Hardware stack levels used:    1
  2630 ;; Hardware stack levels required when called:    3
  2631 ;; This function calls:
  2632 ;;		_LCD_Write_Char
  2633 ;; This function is called by:
  2634 ;;		_main
  2635 ;; This function uses a non-reentrant model
  2636 ;;
  2637                           
  2638                           
  2639                           ;psect for function _LCD_Write_String
  2640  1419                     _LCD_Write_String:
  2641  1419                     l3343:	
  2642                           ;incstack = 0
  2643                           ; Regs used in _LCD_Write_String: [wreg-fsr0h+status,2+status,0+btemp+1+pclath+cstack]
  2644                           
  2645                           
  2646                           ;LCD.c: 95:     int i;;LCD.c: 96:     for (i = 0; a[i] != '\0'; i++)
  2647  1419  1283               	bcf	3,5	;RP0=0, select bank0
  2648  141A  1303               	bcf	3,6	;RP1=0, select bank0
  2649  141B  01A3               	clrf	LCD_Write_String@i
  2650  141C  01A4               	clrf	LCD_Write_String@i+1
  2651  141D  2C42               	goto	l3349
  2652  141E                     l3345:
  2653                           
  2654                           ;LCD.c: 97:         LCD_Write_Char(a[i]);
  2655  141E  0823               	movf	LCD_Write_String@i,w
  2656  141F  0777               	addwf	LCD_Write_String@a,w
  2657  1420  00A1               	movwf	??_LCD_Write_String+1
  2658  1421  0878               	movf	LCD_Write_String@a+1,w
  2659  1422  00A0               	movwf	??_LCD_Write_String
  2660  1423  1803               	skipnc
  2661  1424  0AA0               	incf	??_LCD_Write_String,f
  2662  1425  1FA3               	btfss	LCD_Write_String@i,7
  2663  1426  2C28               	goto	u4750
  2664  1427  03A0               	decf	??_LCD_Write_String,f
  2665  1428                     u4750:
  2666  1428  1283               	bcf	3,5	;RP0=0, select bank0
  2667  1429  1303               	bcf	3,6	;RP1=0, select bank0
  2668  142A  0820               	movf	??_LCD_Write_String,w
  2669  142B  00A2               	movwf	??_LCD_Write_String+2
  2670  142C  0822               	movf	??_LCD_Write_String+2,w
  2671  142D  00FF               	movwf	btemp+1
  2672  142E  0821               	movf	??_LCD_Write_String+1,w
  2673  142F  0084               	movwf	4
  2674  1430  120A  118A  27E1  160A  118A  	fcall	stringtab
  2675  1435  160A  118A  23E0  160A  118A  	fcall	_LCD_Write_Char
  2676  143A                     l3347:
  2677  143A  3001               	movlw	1
  2678  143B  1283               	bcf	3,5	;RP0=0, select bank0
  2679  143C  1303               	bcf	3,6	;RP1=0, select bank0
  2680  143D  07A3               	addwf	LCD_Write_String@i,f
  2681  143E  1803               	skipnc
  2682  143F  0AA4               	incf	LCD_Write_String@i+1,f
  2683  1440  3000               	movlw	0
  2684  1441  07A4               	addwf	LCD_Write_String@i+1,f
  2685  1442                     l3349:
  2686  1442  0823               	movf	LCD_Write_String@i,w
  2687  1443  0777               	addwf	LCD_Write_String@a,w
  2688  1444  00A1               	movwf	??_LCD_Write_String+1
  2689  1445  0878               	movf	LCD_Write_String@a+1,w
  2690  1446  00A0               	movwf	??_LCD_Write_String
  2691  1447  1803               	skipnc
  2692  1448  0AA0               	incf	??_LCD_Write_String,f
  2693  1449  1FA3               	btfss	LCD_Write_String@i,7
  2694  144A  2C4C               	goto	u4760
  2695  144B  03A0               	decf	??_LCD_Write_String,f
  2696  144C                     u4760:
  2697  144C  1283               	bcf	3,5	;RP0=0, select bank0
  2698  144D  1303               	bcf	3,6	;RP1=0, select bank0
  2699  144E  0820               	movf	??_LCD_Write_String,w
  2700  144F  00A2               	movwf	??_LCD_Write_String+2
  2701  1450  0822               	movf	??_LCD_Write_String+2,w
  2702  1451  00FF               	movwf	btemp+1
  2703  1452  0821               	movf	??_LCD_Write_String+1,w
  2704  1453  0084               	movwf	4
  2705  1454  120A  118A  27E1  160A  118A  	fcall	stringtab
  2706  1459  3A00               	xorlw	0
  2707  145A  1D03               	skipz
  2708  145B  2C5D               	goto	u4771
  2709  145C  2C5E               	goto	u4770
  2710  145D                     u4771:
  2711  145D  2C1E               	goto	l3345
  2712  145E                     u4770:
  2713  145E                     l235:
  2714  145E  0008               	return
  2715  145F                     __end_of_LCD_Write_String:
  2716                           
  2717                           	psect	text7
  2718  13E0                     __ptext7:	
  2719 ;; *************** function _LCD_Write_Char *****************
  2720 ;; Defined at:
  2721 ;;		line 77 in file "LCD.c"
  2722 ;; Parameters:    Size  Location     Type
  2723 ;;  a               1    wreg     unsigned char 
  2724 ;; Auto vars:     Size  Location     Type
  2725 ;;  a               1    6[COMMON] unsigned char 
  2726 ;;  y               1    5[COMMON] unsigned char 
  2727 ;;  temp            1    4[COMMON] unsigned char 
  2728 ;; Return value:  Size  Location     Type
  2729 ;;                  1    wreg      void 
  2730 ;; Registers used:
  2731 ;;		wreg, status,2, status,0, pclath, cstack
  2732 ;; Tracked objects:
  2733 ;;		On entry : 0/0
  2734 ;;		On exit  : 0/0
  2735 ;;		Unchanged: 0/0
  2736 ;; Data sizes:     COMMON   BANK0   BANK1   BANK3   BANK2
  2737 ;;      Params:         0       0       0       0       0
  2738 ;;      Locals:         3       0       0       0       0
  2739 ;;      Temps:          1       0       0       0       0
  2740 ;;      Totals:         4       0       0       0       0
  2741 ;;Total ram usage:        4 bytes
  2742 ;; Hardware stack levels used:    1
  2743 ;; Hardware stack levels required when called:    2
  2744 ;; This function calls:
  2745 ;;		_LCD_Port
  2746 ;; This function is called by:
  2747 ;;		_LCD_Write_String
  2748 ;; This function uses a non-reentrant model
  2749 ;;
  2750                           
  2751                           
  2752                           ;psect for function _LCD_Write_Char
  2753  13E0                     _LCD_Write_Char:
  2754                           
  2755                           ;incstack = 0
  2756                           ; Regs used in _LCD_Write_Char: [wreg+status,2+status,0+pclath+cstack]
  2757                           ;LCD_Write_Char@a stored from wreg
  2758  13E0  00F6               	movwf	LCD_Write_Char@a
  2759  13E1                     l2207:
  2760                           
  2761                           ;LCD.c: 79:     char temp, y;;LCD.c: 80:     temp = a & 0x0F;
  2762  13E1  0876               	movf	LCD_Write_Char@a,w
  2763  13E2  390F               	andlw	15
  2764  13E3  00F3               	movwf	??_LCD_Write_Char
  2765  13E4  0873               	movf	??_LCD_Write_Char,w
  2766  13E5  00F4               	movwf	LCD_Write_Char@temp
  2767                           
  2768                           ;LCD.c: 81:     y = a & 0xF0;
  2769  13E6  0876               	movf	LCD_Write_Char@a,w
  2770  13E7  39F0               	andlw	240
  2771  13E8  00F3               	movwf	??_LCD_Write_Char
  2772  13E9  0873               	movf	??_LCD_Write_Char,w
  2773  13EA  00F5               	movwf	LCD_Write_Char@y
  2774  13EB                     l2209:
  2775                           
  2776                           ;LCD.c: 82:     RE0 = 1;
  2777  13EB  1283               	bcf	3,5	;RP0=0, select bank0
  2778  13EC  1303               	bcf	3,6	;RP1=0, select bank0
  2779  13ED  1409               	bsf	9,0	;volatile
  2780  13EE                     l2211:
  2781                           
  2782                           ;LCD.c: 83:     LCD_Port(y >> 4);
  2783  13EE  0875               	movf	LCD_Write_Char@y,w
  2784  13EF  00F3               	movwf	??_LCD_Write_Char
  2785  13F0  3004               	movlw	4
  2786  13F1                     u2655:
  2787  13F1  1003               	clrc
  2788  13F2  0CF3               	rrf	??_LCD_Write_Char,f
  2789  13F3  3EFF               	addlw	-1
  2790  13F4  1D03               	skipz
  2791  13F5  2BF1               	goto	u2655
  2792  13F6  0873               	movf	??_LCD_Write_Char,w
  2793  13F7  160A  118A  22AD  160A  118A  	fcall	_LCD_Port
  2794  13FC                     l2213:
  2795                           
  2796                           ;LCD.c: 84:     RE1 = 1;
  2797  13FC  1283               	bcf	3,5	;RP0=0, select bank0
  2798  13FD  1303               	bcf	3,6	;RP1=0, select bank0
  2799  13FE  1489               	bsf	9,1	;volatile
  2800  13FF                     l2215:
  2801                           
  2802                           ;LCD.c: 85:     _delay((unsigned long)((40)*(8000000/4000000.0)));
  2803  13FF  301A               	movlw	26
  2804  1400  00F3               	movwf	??_LCD_Write_Char
  2805  1401                     u4937:
  2806  1401  0BF3               	decfsz	??_LCD_Write_Char,f
  2807  1402  2C01               	goto	u4937
  2808  1403  0000               	nop
  2809  1404                     l2217:
  2810                           
  2811                           ;LCD.c: 86:     RE1 = 0;
  2812  1404  1283               	bcf	3,5	;RP0=0, select bank0
  2813  1405  1303               	bcf	3,6	;RP1=0, select bank0
  2814  1406  1089               	bcf	9,1	;volatile
  2815  1407                     l2219:
  2816                           
  2817                           ;LCD.c: 87:     LCD_Port(temp);
  2818  1407  0874               	movf	LCD_Write_Char@temp,w
  2819  1408  160A  118A  22AD  160A  118A  	fcall	_LCD_Port
  2820  140D                     l2221:
  2821                           
  2822                           ;LCD.c: 88:     RE1 = 1;
  2823  140D  1283               	bcf	3,5	;RP0=0, select bank0
  2824  140E  1303               	bcf	3,6	;RP1=0, select bank0
  2825  140F  1489               	bsf	9,1	;volatile
  2826  1410                     l2223:
  2827                           
  2828                           ;LCD.c: 89:     _delay((unsigned long)((40)*(8000000/4000000.0)));
  2829  1410  301A               	movlw	26
  2830  1411  00F3               	movwf	??_LCD_Write_Char
  2831  1412                     u4947:
  2832  1412  0BF3               	decfsz	??_LCD_Write_Char,f
  2833  1413  2C12               	goto	u4947
  2834  1414  0000               	nop
  2835  1415                     l2225:
  2836                           
  2837                           ;LCD.c: 90:     RE1 = 0;
  2838  1415  1283               	bcf	3,5	;RP0=0, select bank0
  2839  1416  1303               	bcf	3,6	;RP1=0, select bank0
  2840  1417  1089               	bcf	9,1	;volatile
  2841  1418                     l229:
  2842  1418  0008               	return
  2843  1419                     __end_of_LCD_Write_Char:
  2844                           
  2845                           	psect	text8
  2846  145F                     __ptext8:	
  2847 ;; *************** function _LCD_Set_Cursor *****************
  2848 ;; Defined at:
  2849 ;;		line 41 in file "LCD.c"
  2850 ;; Parameters:    Size  Location     Type
  2851 ;;  a               1    wreg     unsigned char 
  2852 ;;  b               1    6[COMMON] unsigned char 
  2853 ;; Auto vars:     Size  Location     Type
  2854 ;;  a               1    0[BANK0 ] unsigned char 
  2855 ;;  temp            1    3[BANK0 ] unsigned char 
  2856 ;;  y               1    2[BANK0 ] unsigned char 
  2857 ;;  z               1    1[BANK0 ] unsigned char 
  2858 ;; Return value:  Size  Location     Type
  2859 ;;                  1    wreg      void 
  2860 ;; Registers used:
  2861 ;;		wreg, status,2, status,0, pclath, cstack
  2862 ;; Tracked objects:
  2863 ;;		On entry : 0/0
  2864 ;;		On exit  : 0/0
  2865 ;;		Unchanged: 0/0
  2866 ;; Data sizes:     COMMON   BANK0   BANK1   BANK3   BANK2
  2867 ;;      Params:         1       0       0       0       0
  2868 ;;      Locals:         0       4       0       0       0
  2869 ;;      Temps:          2       0       0       0       0
  2870 ;;      Totals:         3       4       0       0       0
  2871 ;;Total ram usage:        7 bytes
  2872 ;; Hardware stack levels used:    1
  2873 ;; Hardware stack levels required when called:    3
  2874 ;; This function calls:
  2875 ;;		_LCD_Cmd
  2876 ;; This function is called by:
  2877 ;;		_main
  2878 ;; This function uses a non-reentrant model
  2879 ;;
  2880                           
  2881                           
  2882                           ;psect for function _LCD_Set_Cursor
  2883  145F                     _LCD_Set_Cursor:
  2884                           
  2885                           ;incstack = 0
  2886                           ; Regs used in _LCD_Set_Cursor: [wreg+status,2+status,0+pclath+cstack]
  2887                           ;LCD_Set_Cursor@a stored from wreg
  2888  145F  1283               	bcf	3,5	;RP0=0, select bank0
  2889  1460  1303               	bcf	3,6	;RP1=0, select bank0
  2890  1461  00A0               	movwf	LCD_Set_Cursor@a
  2891  1462                     l2795:
  2892                           
  2893                           ;LCD.c: 43:     char temp, z, y;;LCD.c: 44:     if (a == 1) {
  2894  1462  0320               	decf	LCD_Set_Cursor@a,w
  2895  1463  1D03               	btfss	3,2
  2896  1464  2C66               	goto	u3871
  2897  1465  2C67               	goto	u3870
  2898  1466                     u3871:
  2899  1466  2C8C               	goto	l2805
  2900  1467                     u3870:
  2901  1467                     l2797:
  2902                           
  2903                           ;LCD.c: 45:         temp = 0x80 + b - 1;
  2904  1467  0876               	movf	LCD_Set_Cursor@b,w
  2905  1468  3E7F               	addlw	127
  2906  1469  00F7               	movwf	??_LCD_Set_Cursor
  2907  146A  0877               	movf	??_LCD_Set_Cursor,w
  2908  146B  00A3               	movwf	LCD_Set_Cursor@temp
  2909                           
  2910                           ;LCD.c: 46:         z = temp >> 4;
  2911  146C  0823               	movf	LCD_Set_Cursor@temp,w
  2912  146D  00F7               	movwf	??_LCD_Set_Cursor
  2913  146E  3004               	movlw	4
  2914  146F                     u3885:
  2915  146F  1003               	clrc
  2916  1470  0CF7               	rrf	??_LCD_Set_Cursor,f
  2917  1471  3EFF               	addlw	-1
  2918  1472  1D03               	skipz
  2919  1473  2C6F               	goto	u3885
  2920  1474  0877               	movf	??_LCD_Set_Cursor,w
  2921  1475  00F8               	movwf	??_LCD_Set_Cursor+1
  2922  1476  0878               	movf	??_LCD_Set_Cursor+1,w
  2923  1477  00A1               	movwf	LCD_Set_Cursor@z
  2924  1478                     l2799:
  2925                           
  2926                           ;LCD.c: 47:         y = temp & 0x0F;
  2927  1478  0823               	movf	LCD_Set_Cursor@temp,w
  2928  1479  390F               	andlw	15
  2929  147A  00F7               	movwf	??_LCD_Set_Cursor
  2930  147B  0877               	movf	??_LCD_Set_Cursor,w
  2931  147C  00A2               	movwf	LCD_Set_Cursor@y
  2932  147D                     l2801:
  2933                           
  2934                           ;LCD.c: 48:         LCD_Cmd(z);
  2935  147D  0821               	movf	LCD_Set_Cursor@z,w
  2936  147E  160A  118A  2293  160A  118A  	fcall	_LCD_Cmd
  2937  1483                     l2803:
  2938                           
  2939                           ;LCD.c: 49:         LCD_Cmd(y);
  2940  1483  1283               	bcf	3,5	;RP0=0, select bank0
  2941  1484  1303               	bcf	3,6	;RP1=0, select bank0
  2942  1485  0822               	movf	LCD_Set_Cursor@y,w
  2943  1486  160A  118A  2293  160A  118A  	fcall	_LCD_Cmd
  2944                           
  2945                           ;LCD.c: 50:     } else if (a == 2) {
  2946  148B  2CB6               	goto	l223
  2947  148C                     l2805:
  2948  148C  3002               	movlw	2
  2949  148D  0620               	xorwf	LCD_Set_Cursor@a,w
  2950  148E  1D03               	btfss	3,2
  2951  148F  2C91               	goto	u3891
  2952  1490  2C92               	goto	u3890
  2953  1491                     u3891:
  2954  1491  2CB6               	goto	l223
  2955  1492                     u3890:
  2956  1492                     l2807:
  2957                           
  2958                           ;LCD.c: 51:         temp = 0xC0 + b - 1;
  2959  1492  0876               	movf	LCD_Set_Cursor@b,w
  2960  1493  3EBF               	addlw	191
  2961  1494  00F7               	movwf	??_LCD_Set_Cursor
  2962  1495  0877               	movf	??_LCD_Set_Cursor,w
  2963  1496  00A3               	movwf	LCD_Set_Cursor@temp
  2964                           
  2965                           ;LCD.c: 52:         z = temp >> 4;
  2966  1497  0823               	movf	LCD_Set_Cursor@temp,w
  2967  1498  00F7               	movwf	??_LCD_Set_Cursor
  2968  1499  3004               	movlw	4
  2969  149A                     u3905:
  2970  149A  1003               	clrc
  2971  149B  0CF7               	rrf	??_LCD_Set_Cursor,f
  2972  149C  3EFF               	addlw	-1
  2973  149D  1D03               	skipz
  2974  149E  2C9A               	goto	u3905
  2975  149F  0877               	movf	??_LCD_Set_Cursor,w
  2976  14A0  00F8               	movwf	??_LCD_Set_Cursor+1
  2977  14A1  0878               	movf	??_LCD_Set_Cursor+1,w
  2978  14A2  00A1               	movwf	LCD_Set_Cursor@z
  2979  14A3                     l2809:
  2980                           
  2981                           ;LCD.c: 53:         y = temp & 0x0F;
  2982  14A3  0823               	movf	LCD_Set_Cursor@temp,w
  2983  14A4  390F               	andlw	15
  2984  14A5  00F7               	movwf	??_LCD_Set_Cursor
  2985  14A6  0877               	movf	??_LCD_Set_Cursor,w
  2986  14A7  00A2               	movwf	LCD_Set_Cursor@y
  2987  14A8                     l2811:
  2988                           
  2989                           ;LCD.c: 54:         LCD_Cmd(z);
  2990  14A8  0821               	movf	LCD_Set_Cursor@z,w
  2991  14A9  160A  118A  2293  160A  118A  	fcall	_LCD_Cmd
  2992  14AE                     l2813:
  2993                           
  2994                           ;LCD.c: 55:         LCD_Cmd(y);
  2995  14AE  1283               	bcf	3,5	;RP0=0, select bank0
  2996  14AF  1303               	bcf	3,6	;RP1=0, select bank0
  2997  14B0  0822               	movf	LCD_Set_Cursor@y,w
  2998  14B1  160A  118A  2293  160A  118A  	fcall	_LCD_Cmd
  2999  14B6                     l223:
  3000  14B6  0008               	return
  3001  14B7                     __end_of_LCD_Set_Cursor:
  3002                           
  3003                           	psect	text9
  3004  1510                     __ptext9:	
  3005 ;; *************** function _LCD_Init *****************
  3006 ;; Defined at:
  3007 ;;		line 59 in file "LCD.c"
  3008 ;; Parameters:    Size  Location     Type
  3009 ;;		None
  3010 ;; Auto vars:     Size  Location     Type
  3011 ;;		None
  3012 ;; Return value:  Size  Location     Type
  3013 ;;                  1    wreg      void 
  3014 ;; Registers used:
  3015 ;;		wreg, status,2, status,0, pclath, cstack
  3016 ;; Tracked objects:
  3017 ;;		On entry : 0/0
  3018 ;;		On exit  : 0/0
  3019 ;;		Unchanged: 0/0
  3020 ;; Data sizes:     COMMON   BANK0   BANK1   BANK3   BANK2
  3021 ;;      Params:         0       0       0       0       0
  3022 ;;      Locals:         0       0       0       0       0
  3023 ;;      Temps:          2       0       0       0       0
  3024 ;;      Totals:         2       0       0       0       0
  3025 ;;Total ram usage:        2 bytes
  3026 ;; Hardware stack levels used:    1
  3027 ;; Hardware stack levels required when called:    3
  3028 ;; This function calls:
  3029 ;;		_LCD_Cmd
  3030 ;;		_LCD_Port
  3031 ;; This function is called by:
  3032 ;;		_main
  3033 ;; This function uses a non-reentrant model
  3034 ;;
  3035                           
  3036                           
  3037                           ;psect for function _LCD_Init
  3038  1510                     _LCD_Init:
  3039  1510                     l2755:	
  3040                           ;incstack = 0
  3041                           ; Regs used in _LCD_Init: [wreg+status,2+status,0+pclath+cstack]
  3042                           
  3043                           
  3044                           ;LCD.c: 61:     LCD_Port(0x00);
  3045  1510  3000               	movlw	0
  3046  1511  160A  118A  22AD  160A  118A  	fcall	_LCD_Port
  3047  1516                     l2757:
  3048                           
  3049                           ;LCD.c: 62:     _delay((unsigned long)((20)*(8000000/4000.0)));
  3050  1516  3034               	movlw	52
  3051  1517  00F7               	movwf	??_LCD_Init+1
  3052  1518  30F1               	movlw	241
  3053  1519  00F6               	movwf	??_LCD_Init
  3054  151A                     u4957:
  3055  151A  0BF6               	decfsz	??_LCD_Init,f
  3056  151B  2D1A               	goto	u4957
  3057  151C  0BF7               	decfsz	??_LCD_Init+1,f
  3058  151D  2D1A               	goto	u4957
  3059  151E  2D1F               	nop2
  3060  151F                     l2759:
  3061                           
  3062                           ;LCD.c: 63:     LCD_Cmd(0x03);
  3063  151F  3003               	movlw	3
  3064  1520  160A  118A  2293  160A  118A  	fcall	_LCD_Cmd
  3065                           
  3066                           ;LCD.c: 64:     _delay((unsigned long)((5)*(8000000/4000.0)));
  3067  1525  300D               	movlw	13
  3068  1526  00F7               	movwf	??_LCD_Init+1
  3069  1527  30FB               	movlw	251
  3070  1528  00F6               	movwf	??_LCD_Init
  3071  1529                     u4967:
  3072  1529  0BF6               	decfsz	??_LCD_Init,f
  3073  152A  2D29               	goto	u4967
  3074  152B  0BF7               	decfsz	??_LCD_Init+1,f
  3075  152C  2D29               	goto	u4967
  3076  152D  2D2E               	nop2
  3077  152E                     l2761:
  3078                           
  3079                           ;LCD.c: 65:     LCD_Cmd(0x03);
  3080  152E  3003               	movlw	3
  3081  152F  160A  118A  2293  160A  118A  	fcall	_LCD_Cmd
  3082  1534                     l2763:
  3083                           
  3084                           ;LCD.c: 66:     _delay((unsigned long)((11)*(8000000/4000.0)));
  3085  1534  301D               	movlw	29
  3086  1535  00F7               	movwf	??_LCD_Init+1
  3087  1536  3091               	movlw	145
  3088  1537  00F6               	movwf	??_LCD_Init
  3089  1538                     u4977:
  3090  1538  0BF6               	decfsz	??_LCD_Init,f
  3091  1539  2D38               	goto	u4977
  3092  153A  0BF7               	decfsz	??_LCD_Init+1,f
  3093  153B  2D38               	goto	u4977
  3094                           
  3095                           ;LCD.c: 67:     LCD_Cmd(0x03);
  3096  153C  3003               	movlw	3
  3097  153D  160A  118A  2293  160A  118A  	fcall	_LCD_Cmd
  3098                           
  3099                           ;LCD.c: 68:     LCD_Cmd(0x02);
  3100  1542  3002               	movlw	2
  3101  1543  160A  118A  2293  160A  118A  	fcall	_LCD_Cmd
  3102                           
  3103                           ;LCD.c: 69:     LCD_Cmd(0x02);
  3104  1548  3002               	movlw	2
  3105  1549  160A  118A  2293  160A  118A  	fcall	_LCD_Cmd
  3106                           
  3107                           ;LCD.c: 70:     LCD_Cmd(0x08);
  3108  154E  3008               	movlw	8
  3109  154F  160A  118A  2293  160A  118A  	fcall	_LCD_Cmd
  3110                           
  3111                           ;LCD.c: 71:     LCD_Cmd(0x00);
  3112  1554  3000               	movlw	0
  3113  1555  160A  118A  2293  160A  118A  	fcall	_LCD_Cmd
  3114                           
  3115                           ;LCD.c: 72:     LCD_Cmd(0x0C);
  3116  155A  300C               	movlw	12
  3117  155B  160A  118A  2293  160A  118A  	fcall	_LCD_Cmd
  3118                           
  3119                           ;LCD.c: 73:     LCD_Cmd(0x00);
  3120  1560  3000               	movlw	0
  3121  1561  160A  118A  2293  160A  118A  	fcall	_LCD_Cmd
  3122                           
  3123                           ;LCD.c: 74:     LCD_Cmd(0x06);
  3124  1566  3006               	movlw	6
  3125  1567  160A  118A  2293  160A  118A  	fcall	_LCD_Cmd
  3126  156C                     l226:
  3127  156C  0008               	return
  3128  156D                     __end_of_LCD_Init:
  3129                           
  3130                           	psect	text10
  3131  1286                     __ptext10:	
  3132 ;; *************** function _LCD_Clear *****************
  3133 ;; Defined at:
  3134 ;;		line 35 in file "LCD.c"
  3135 ;; Parameters:    Size  Location     Type
  3136 ;;		None
  3137 ;; Auto vars:     Size  Location     Type
  3138 ;;		None
  3139 ;; Return value:  Size  Location     Type
  3140 ;;                  1    wreg      void 
  3141 ;; Registers used:
  3142 ;;		wreg, status,2, status,0, pclath, cstack
  3143 ;; Tracked objects:
  3144 ;;		On entry : 0/0
  3145 ;;		On exit  : 0/0
  3146 ;;		Unchanged: 0/0
  3147 ;; Data sizes:     COMMON   BANK0   BANK1   BANK3   BANK2
  3148 ;;      Params:         0       0       0       0       0
  3149 ;;      Locals:         0       0       0       0       0
  3150 ;;      Temps:          0       0       0       0       0
  3151 ;;      Totals:         0       0       0       0       0
  3152 ;;Total ram usage:        0 bytes
  3153 ;; Hardware stack levels used:    1
  3154 ;; Hardware stack levels required when called:    3
  3155 ;; This function calls:
  3156 ;;		_LCD_Cmd
  3157 ;; This function is called by:
  3158 ;;		_main
  3159 ;; This function uses a non-reentrant model
  3160 ;;
  3161                           
  3162                           
  3163                           ;psect for function _LCD_Clear
  3164  1286                     _LCD_Clear:
  3165  1286                     l2765:	
  3166                           ;incstack = 0
  3167                           ; Regs used in _LCD_Clear: [wreg+status,2+status,0+pclath+cstack]
  3168                           
  3169                           
  3170                           ;LCD.c: 37:     LCD_Cmd(0);
  3171  1286  3000               	movlw	0
  3172  1287  160A  118A  2293  160A  118A  	fcall	_LCD_Cmd
  3173                           
  3174                           ;LCD.c: 38:     LCD_Cmd(1);
  3175  128C  3001               	movlw	1
  3176  128D  160A  118A  2293  160A  118A  	fcall	_LCD_Cmd
  3177  1292                     l217:
  3178  1292  0008               	return
  3179  1293                     __end_of_LCD_Clear:
  3180                           
  3181                           	psect	text11
  3182  1293                     __ptext11:	
  3183 ;; *************** function _LCD_Cmd *****************
  3184 ;; Defined at:
  3185 ;;		line 26 in file "LCD.c"
  3186 ;; Parameters:    Size  Location     Type
  3187 ;;  a               1    wreg     unsigned char 
  3188 ;; Auto vars:     Size  Location     Type
  3189 ;;  a               1    5[COMMON] unsigned char 
  3190 ;; Return value:  Size  Location     Type
  3191 ;;                  1    wreg      void 
  3192 ;; Registers used:
  3193 ;;		wreg, status,2, status,0, pclath, cstack
  3194 ;; Tracked objects:
  3195 ;;		On entry : 0/0
  3196 ;;		On exit  : 0/0
  3197 ;;		Unchanged: 0/0
  3198 ;; Data sizes:     COMMON   BANK0   BANK1   BANK3   BANK2
  3199 ;;      Params:         0       0       0       0       0
  3200 ;;      Locals:         1       0       0       0       0
  3201 ;;      Temps:          2       0       0       0       0
  3202 ;;      Totals:         3       0       0       0       0
  3203 ;;Total ram usage:        3 bytes
  3204 ;; Hardware stack levels used:    1
  3205 ;; Hardware stack levels required when called:    2
  3206 ;; This function calls:
  3207 ;;		_LCD_Port
  3208 ;; This function is called by:
  3209 ;;		_LCD_Clear
  3210 ;;		_LCD_Set_Cursor
  3211 ;;		_LCD_Init
  3212 ;;		_LCD_Shift_Right
  3213 ;;		_LCD_Shift_Left
  3214 ;; This function uses a non-reentrant model
  3215 ;;
  3216                           
  3217                           
  3218                           ;psect for function _LCD_Cmd
  3219  1293                     _LCD_Cmd:
  3220                           
  3221                           ;incstack = 0
  3222                           ; Regs used in _LCD_Cmd: [wreg+status,2+status,0+pclath+cstack]
  3223                           ;LCD_Cmd@a stored from wreg
  3224  1293  00F5               	movwf	LCD_Cmd@a
  3225  1294                     l2197:
  3226                           
  3227                           ;LCD.c: 28:     RE0 = 0;
  3228  1294  1283               	bcf	3,5	;RP0=0, select bank0
  3229  1295  1303               	bcf	3,6	;RP1=0, select bank0
  3230  1296  1009               	bcf	9,0	;volatile
  3231  1297                     l2199:
  3232                           
  3233                           ;LCD.c: 29:     LCD_Port(a);
  3234  1297  0875               	movf	LCD_Cmd@a,w
  3235  1298  160A  118A  22AD  160A  118A  	fcall	_LCD_Port
  3236  129D                     l2201:
  3237                           
  3238                           ;LCD.c: 30:     RE1 = 1;
  3239  129D  1283               	bcf	3,5	;RP0=0, select bank0
  3240  129E  1303               	bcf	3,6	;RP1=0, select bank0
  3241  129F  1489               	bsf	9,1	;volatile
  3242  12A0                     l2203:
  3243                           
  3244                           ;LCD.c: 31:     _delay((unsigned long)((4)*(8000000/4000.0)));
  3245  12A0  300B               	movlw	11
  3246  12A1  00F4               	movwf	??_LCD_Cmd+1
  3247  12A2  3062               	movlw	98
  3248  12A3  00F3               	movwf	??_LCD_Cmd
  3249  12A4                     u4987:
  3250  12A4  0BF3               	decfsz	??_LCD_Cmd,f
  3251  12A5  2AA4               	goto	u4987
  3252  12A6  0BF4               	decfsz	??_LCD_Cmd+1,f
  3253  12A7  2AA4               	goto	u4987
  3254  12A8  0000               	nop
  3255  12A9                     l2205:
  3256                           
  3257                           ;LCD.c: 32:     RE1 = 0;
  3258  12A9  1283               	bcf	3,5	;RP0=0, select bank0
  3259  12AA  1303               	bcf	3,6	;RP1=0, select bank0
  3260  12AB  1089               	bcf	9,1	;volatile
  3261  12AC                     l214:
  3262  12AC  0008               	return
  3263  12AD                     __end_of_LCD_Cmd:
  3264                           
  3265                           	psect	text12
  3266  12AD                     __ptext12:	
  3267 ;; *************** function _LCD_Port *****************
  3268 ;; Defined at:
  3269 ;;		line 3 in file "LCD.c"
  3270 ;; Parameters:    Size  Location     Type
  3271 ;;  a               1    wreg     unsigned char 
  3272 ;; Auto vars:     Size  Location     Type
  3273 ;;  a               1    2[COMMON] unsigned char 
  3274 ;; Return value:  Size  Location     Type
  3275 ;;                  1    wreg      void 
  3276 ;; Registers used:
  3277 ;;		wreg
  3278 ;; Tracked objects:
  3279 ;;		On entry : 0/0
  3280 ;;		On exit  : 0/0
  3281 ;;		Unchanged: 0/0
  3282 ;; Data sizes:     COMMON   BANK0   BANK1   BANK3   BANK2
  3283 ;;      Params:         0       0       0       0       0
  3284 ;;      Locals:         1       0       0       0       0
  3285 ;;      Temps:          0       0       0       0       0
  3286 ;;      Totals:         1       0       0       0       0
  3287 ;;Total ram usage:        1 bytes
  3288 ;; Hardware stack levels used:    1
  3289 ;; Hardware stack levels required when called:    1
  3290 ;; This function calls:
  3291 ;;		Nothing
  3292 ;; This function is called by:
  3293 ;;		_LCD_Cmd
  3294 ;;		_LCD_Init
  3295 ;;		_LCD_Write_Char
  3296 ;; This function uses a non-reentrant model
  3297 ;;
  3298                           
  3299                           
  3300                           ;psect for function _LCD_Port
  3301  12AD                     _LCD_Port:
  3302                           
  3303                           ;incstack = 0
  3304                           ; Regs used in _LCD_Port: [wreg]
  3305                           ;LCD_Port@a stored from wreg
  3306  12AD  00F2               	movwf	LCD_Port@a
  3307  12AE                     l1939:
  3308                           
  3309                           ;LCD.c: 5:     if (a & 1)
  3310  12AE  1C72               	btfss	LCD_Port@a,0
  3311  12AF  2AB1               	goto	u2021
  3312  12B0  2AB2               	goto	u2020
  3313  12B1                     u2021:
  3314  12B1  2AB6               	goto	l203
  3315  12B2                     u2020:
  3316  12B2                     l1941:
  3317                           
  3318                           ;LCD.c: 6:         RC2 = 1;
  3319  12B2  1283               	bcf	3,5	;RP0=0, select bank0
  3320  12B3  1303               	bcf	3,6	;RP1=0, select bank0
  3321  12B4  1507               	bsf	7,2	;volatile
  3322  12B5  2AB9               	goto	l204
  3323  12B6                     l203:	
  3324                           ;LCD.c: 7:     else
  3325                           
  3326                           
  3327                           ;LCD.c: 8:         RC2 = 0;
  3328  12B6  1283               	bcf	3,5	;RP0=0, select bank0
  3329  12B7  1303               	bcf	3,6	;RP1=0, select bank0
  3330  12B8  1107               	bcf	7,2	;volatile
  3331  12B9                     l204:
  3332                           
  3333                           ;LCD.c: 10:     if (a & 2)
  3334  12B9  1CF2               	btfss	LCD_Port@a,1
  3335  12BA  2ABC               	goto	u2031
  3336  12BB  2ABD               	goto	u2030
  3337  12BC                     u2031:
  3338  12BC  2ABF               	goto	l205
  3339  12BD                     u2030:
  3340  12BD                     l1943:
  3341                           
  3342                           ;LCD.c: 11:         RC1 = 1;
  3343  12BD  1487               	bsf	7,1	;volatile
  3344  12BE  2AC0               	goto	l206
  3345  12BF                     l205:	
  3346                           ;LCD.c: 12:     else
  3347                           
  3348                           
  3349                           ;LCD.c: 13:         RC1 = 0;
  3350  12BF  1087               	bcf	7,1	;volatile
  3351  12C0                     l206:
  3352                           
  3353                           ;LCD.c: 15:     if (a & 4)
  3354  12C0  1D72               	btfss	LCD_Port@a,2
  3355  12C1  2AC3               	goto	u2041
  3356  12C2  2AC4               	goto	u2040
  3357  12C3                     u2041:
  3358  12C3  2AC6               	goto	l207
  3359  12C4                     u2040:
  3360  12C4                     l1945:
  3361                           
  3362                           ;LCD.c: 16:         RC0 = 1;
  3363  12C4  1407               	bsf	7,0	;volatile
  3364  12C5  2AC7               	goto	l208
  3365  12C6                     l207:	
  3366                           ;LCD.c: 17:     else
  3367                           
  3368                           
  3369                           ;LCD.c: 18:         RC0 = 0;
  3370  12C6  1007               	bcf	7,0	;volatile
  3371  12C7                     l208:
  3372                           
  3373                           ;LCD.c: 20:     if (a & 8)
  3374  12C7  1DF2               	btfss	LCD_Port@a,3
  3375  12C8  2ACA               	goto	u2051
  3376  12C9  2ACB               	goto	u2050
  3377  12CA                     u2051:
  3378  12CA  2ACD               	goto	l209
  3379  12CB                     u2050:
  3380  12CB                     l1947:
  3381                           
  3382                           ;LCD.c: 21:         RC5 = 1;
  3383  12CB  1687               	bsf	7,5	;volatile
  3384  12CC  2ACE               	goto	l211
  3385  12CD                     l209:	
  3386                           ;LCD.c: 22:     else
  3387                           
  3388                           
  3389                           ;LCD.c: 23:         RC5 = 0;
  3390  12CD  1287               	bcf	7,5	;volatile
  3391  12CE                     l211:
  3392  12CE  0008               	return
  3393  12CF                     __end_of_LCD_Port:
  3394                           
  3395                           	psect	text13
  3396  126F                     __ptext13:	
  3397 ;; *************** function _I2C_Master_Write *****************
  3398 ;; Defined at:
  3399 ;;		line 48 in file "I2C.c"
  3400 ;; Parameters:    Size  Location     Type
  3401 ;;  d               2    2[COMMON] unsigned int 
  3402 ;; Auto vars:     Size  Location     Type
  3403 ;;		None
  3404 ;; Return value:  Size  Location     Type
  3405 ;;                  1    wreg      void 
  3406 ;; Registers used:
  3407 ;;		wreg, status,2, status,0, pclath, cstack
  3408 ;; Tracked objects:
  3409 ;;		On entry : 0/0
  3410 ;;		On exit  : 0/0
  3411 ;;		Unchanged: 0/0
  3412 ;; Data sizes:     COMMON   BANK0   BANK1   BANK3   BANK2
  3413 ;;      Params:         2       0       0       0       0
  3414 ;;      Locals:         0       0       0       0       0
  3415 ;;      Temps:          0       0       0       0       0
  3416 ;;      Totals:         2       0       0       0       0
  3417 ;;Total ram usage:        2 bytes
  3418 ;; Hardware stack levels used:    1
  3419 ;; Hardware stack levels required when called:    2
  3420 ;; This function calls:
  3421 ;;		_I2C_Master_Wait
  3422 ;; This function is called by:
  3423 ;;		_main
  3424 ;; This function uses a non-reentrant model
  3425 ;;
  3426                           
  3427                           
  3428                           ;psect for function _I2C_Master_Write
  3429  126F                     _I2C_Master_Write:
  3430  126F                     l2771:	
  3431                           ;incstack = 0
  3432                           ; Regs used in _I2C_Master_Write: [wreg+status,2+status,0+pclath+cstack]
  3433                           
  3434                           
  3435                           ;I2C.c: 50:     I2C_Master_Wait();
  3436  126F  160A  118A  2279  160A  118A  	fcall	_I2C_Master_Wait
  3437  1274                     l2773:
  3438                           
  3439                           ;I2C.c: 51:     SSPBUF = d;
  3440  1274  0872               	movf	I2C_Master_Write@d,w
  3441  1275  1283               	bcf	3,5	;RP0=0, select bank0
  3442  1276  1303               	bcf	3,6	;RP1=0, select bank0
  3443  1277  0093               	movwf	19	;volatile
  3444  1278                     l178:
  3445  1278  0008               	return
  3446  1279                     __end_of_I2C_Master_Write:
  3447                           
  3448                           	psect	text14
  3449  1266                     __ptext14:	
  3450 ;; *************** function _I2C_Master_Stop *****************
  3451 ;; Defined at:
  3452 ;;		line 40 in file "I2C.c"
  3453 ;; Parameters:    Size  Location     Type
  3454 ;;		None
  3455 ;; Auto vars:     Size  Location     Type
  3456 ;;		None
  3457 ;; Return value:  Size  Location     Type
  3458 ;;                  1    wreg      void 
  3459 ;; Registers used:
  3460 ;;		wreg, status,2, status,0, pclath, cstack
  3461 ;; Tracked objects:
  3462 ;;		On entry : 0/0
  3463 ;;		On exit  : 0/0
  3464 ;;		Unchanged: 0/0
  3465 ;; Data sizes:     COMMON   BANK0   BANK1   BANK3   BANK2
  3466 ;;      Params:         0       0       0       0       0
  3467 ;;      Locals:         0       0       0       0       0
  3468 ;;      Temps:          0       0       0       0       0
  3469 ;;      Totals:         0       0       0       0       0
  3470 ;;Total ram usage:        0 bytes
  3471 ;; Hardware stack levels used:    1
  3472 ;; Hardware stack levels required when called:    2
  3473 ;; This function calls:
  3474 ;;		_I2C_Master_Wait
  3475 ;; This function is called by:
  3476 ;;		_main
  3477 ;; This function uses a non-reentrant model
  3478 ;;
  3479                           
  3480                           
  3481                           ;psect for function _I2C_Master_Stop
  3482  1266                     _I2C_Master_Stop:
  3483  1266                     l2791:	
  3484                           ;incstack = 0
  3485                           ; Regs used in _I2C_Master_Stop: [wreg+status,2+status,0+pclath+cstack]
  3486                           
  3487                           
  3488                           ;I2C.c: 42:     I2C_Master_Wait();
  3489  1266  160A  118A  2279  160A  118A  	fcall	_I2C_Master_Wait
  3490  126B                     l2793:
  3491                           
  3492                           ;I2C.c: 43:     SSPCON2bits.PEN = 1;
  3493  126B  1683               	bsf	3,5	;RP0=1, select bank1
  3494  126C  1303               	bcf	3,6	;RP1=0, select bank1
  3495  126D  1511               	bsf	17,2	;volatile
  3496  126E                     l175:
  3497  126E  0008               	return
  3498  126F                     __end_of_I2C_Master_Stop:
  3499                           
  3500                           	psect	text15
  3501  125D                     __ptext15:	
  3502 ;; *************** function _I2C_Master_Start *****************
  3503 ;; Defined at:
  3504 ;;		line 24 in file "I2C.c"
  3505 ;; Parameters:    Size  Location     Type
  3506 ;;		None
  3507 ;; Auto vars:     Size  Location     Type
  3508 ;;		None
  3509 ;; Return value:  Size  Location     Type
  3510 ;;                  1    wreg      void 
  3511 ;; Registers used:
  3512 ;;		wreg, status,2, status,0, pclath, cstack
  3513 ;; Tracked objects:
  3514 ;;		On entry : 0/0
  3515 ;;		On exit  : 0/0
  3516 ;;		Unchanged: 0/0
  3517 ;; Data sizes:     COMMON   BANK0   BANK1   BANK3   BANK2
  3518 ;;      Params:         0       0       0       0       0
  3519 ;;      Locals:         0       0       0       0       0
  3520 ;;      Temps:          0       0       0       0       0
  3521 ;;      Totals:         0       0       0       0       0
  3522 ;;Total ram usage:        0 bytes
  3523 ;; Hardware stack levels used:    1
  3524 ;; Hardware stack levels required when called:    2
  3525 ;; This function calls:
  3526 ;;		_I2C_Master_Wait
  3527 ;; This function is called by:
  3528 ;;		_main
  3529 ;; This function uses a non-reentrant model
  3530 ;;
  3531                           
  3532                           
  3533                           ;psect for function _I2C_Master_Start
  3534  125D                     _I2C_Master_Start:
  3535  125D                     l2767:	
  3536                           ;incstack = 0
  3537                           ; Regs used in _I2C_Master_Start: [wreg+status,2+status,0+pclath+cstack]
  3538                           
  3539                           
  3540                           ;I2C.c: 26:     I2C_Master_Wait();
  3541  125D  160A  118A  2279  160A  118A  	fcall	_I2C_Master_Wait
  3542  1262                     l2769:
  3543                           
  3544                           ;I2C.c: 27:     SSPCON2bits.SEN = 1;
  3545  1262  1683               	bsf	3,5	;RP0=1, select bank1
  3546  1263  1303               	bcf	3,6	;RP1=0, select bank1
  3547  1264  1411               	bsf	17,0	;volatile
  3548  1265                     l169:
  3549  1265  0008               	return
  3550  1266                     __end_of_I2C_Master_Start:
  3551                           
  3552                           	psect	text16
  3553  1343                     __ptext16:	
  3554 ;; *************** function _I2C_Master_Read *****************
  3555 ;; Defined at:
  3556 ;;		line 56 in file "I2C.c"
  3557 ;; Parameters:    Size  Location     Type
  3558 ;;  a               2    2[COMMON] unsigned short 
  3559 ;; Auto vars:     Size  Location     Type
  3560 ;;  temp            2    6[COMMON] unsigned short 
  3561 ;; Return value:  Size  Location     Type
  3562 ;;                  2    2[COMMON] unsigned short 
  3563 ;; Registers used:
  3564 ;;		wreg, status,2, status,0, pclath, cstack
  3565 ;; Tracked objects:
  3566 ;;		On entry : 0/0
  3567 ;;		On exit  : 0/0
  3568 ;;		Unchanged: 0/0
  3569 ;; Data sizes:     COMMON   BANK0   BANK1   BANK3   BANK2
  3570 ;;      Params:         2       0       0       0       0
  3571 ;;      Locals:         2       0       0       0       0
  3572 ;;      Temps:          2       0       0       0       0
  3573 ;;      Totals:         6       0       0       0       0
  3574 ;;Total ram usage:        6 bytes
  3575 ;; Hardware stack levels used:    1
  3576 ;; Hardware stack levels required when called:    2
  3577 ;; This function calls:
  3578 ;;		_I2C_Master_Wait
  3579 ;; This function is called by:
  3580 ;;		_main
  3581 ;; This function uses a non-reentrant model
  3582 ;;
  3583                           
  3584                           
  3585                           ;psect for function _I2C_Master_Read
  3586  1343                     _I2C_Master_Read:
  3587  1343                     l2775:	
  3588                           ;incstack = 0
  3589                           ; Regs used in _I2C_Master_Read: [wreg+status,2+status,0+pclath+cstack]
  3590                           
  3591                           
  3592                           ;I2C.c: 58:     unsigned short temp;;I2C.c: 59:     I2C_Master_Wait();
  3593  1343  160A  118A  2279  160A  118A  	fcall	_I2C_Master_Wait
  3594  1348                     l2777:
  3595                           
  3596                           ;I2C.c: 60:     SSPCON2bits.RCEN = 1;
  3597  1348  1683               	bsf	3,5	;RP0=1, select bank1
  3598  1349  1303               	bcf	3,6	;RP1=0, select bank1
  3599  134A  1591               	bsf	17,3	;volatile
  3600                           
  3601                           ;I2C.c: 61:     I2C_Master_Wait();
  3602  134B  160A  118A  2279  160A  118A  	fcall	_I2C_Master_Wait
  3603  1350                     l2779:
  3604                           
  3605                           ;I2C.c: 62:     temp = SSPBUF;
  3606  1350  1283               	bcf	3,5	;RP0=0, select bank0
  3607  1351  1303               	bcf	3,6	;RP1=0, select bank0
  3608  1352  0813               	movf	19,w	;volatile
  3609  1353  00F4               	movwf	??_I2C_Master_Read
  3610  1354  01F5               	clrf	??_I2C_Master_Read+1
  3611  1355  0874               	movf	??_I2C_Master_Read,w
  3612  1356  00F6               	movwf	I2C_Master_Read@temp
  3613  1357  0875               	movf	??_I2C_Master_Read+1,w
  3614  1358  00F7               	movwf	I2C_Master_Read@temp+1
  3615  1359                     l2781:
  3616                           
  3617                           ;I2C.c: 63:     I2C_Master_Wait();
  3618  1359  160A  118A  2279  160A  118A  	fcall	_I2C_Master_Wait
  3619  135E                     l2783:
  3620                           
  3621                           ;I2C.c: 64:     if(a == 1){
  3622  135E  0372               	decf	I2C_Master_Read@a,w
  3623  135F  0473               	iorwf	I2C_Master_Read@a+1,w
  3624  1360  1D03               	btfss	3,2
  3625  1361  2B63               	goto	u3861
  3626  1362  2B64               	goto	u3860
  3627  1363                     u3861:
  3628  1363  2B68               	goto	l181
  3629  1364                     u3860:
  3630  1364                     l2785:
  3631                           
  3632                           ;I2C.c: 65:         SSPCON2bits.ACKDT = 0;
  3633  1364  1683               	bsf	3,5	;RP0=1, select bank1
  3634  1365  1303               	bcf	3,6	;RP1=0, select bank1
  3635  1366  1291               	bcf	17,5	;volatile
  3636                           
  3637                           ;I2C.c: 66:     } else {
  3638  1367  2B6B               	goto	l182
  3639  1368                     l181:
  3640                           
  3641                           ;I2C.c: 67:         SSPCON2bits.ACKDT = 1;
  3642  1368  1683               	bsf	3,5	;RP0=1, select bank1
  3643  1369  1303               	bcf	3,6	;RP1=0, select bank1
  3644  136A  1691               	bsf	17,5	;volatile
  3645  136B                     l182:	
  3646                           ;I2C.c: 68:     }
  3647                           
  3648                           
  3649                           ;I2C.c: 69:     SSPCON2bits.ACKEN = 1;
  3650  136B  1611               	bsf	17,4	;volatile
  3651  136C                     l2787:
  3652                           
  3653                           ;I2C.c: 70:     return temp;
  3654  136C  0877               	movf	I2C_Master_Read@temp+1,w
  3655  136D  00F3               	movwf	?_I2C_Master_Read+1
  3656  136E  0876               	movf	I2C_Master_Read@temp,w
  3657  136F  00F2               	movwf	?_I2C_Master_Read
  3658  1370                     l183:
  3659  1370  0008               	return
  3660  1371                     __end_of_I2C_Master_Read:
  3661                           
  3662                           	psect	text17
  3663  1279                     __ptext17:	
  3664 ;; *************** function _I2C_Master_Wait *****************
  3665 ;; Defined at:
  3666 ;;		line 17 in file "I2C.c"
  3667 ;; Parameters:    Size  Location     Type
  3668 ;;		None
  3669 ;; Auto vars:     Size  Location     Type
  3670 ;;		None
  3671 ;; Return value:  Size  Location     Type
  3672 ;;                  1    wreg      void 
  3673 ;; Registers used:
  3674 ;;		wreg, status,2
  3675 ;; Tracked objects:
  3676 ;;		On entry : 0/0
  3677 ;;		On exit  : 0/0
  3678 ;;		Unchanged: 0/0
  3679 ;; Data sizes:     COMMON   BANK0   BANK1   BANK3   BANK2
  3680 ;;      Params:         0       0       0       0       0
  3681 ;;      Locals:         0       0       0       0       0
  3682 ;;      Temps:          0       0       0       0       0
  3683 ;;      Totals:         0       0       0       0       0
  3684 ;;Total ram usage:        0 bytes
  3685 ;; Hardware stack levels used:    1
  3686 ;; Hardware stack levels required when called:    1
  3687 ;; This function calls:
  3688 ;;		Nothing
  3689 ;; This function is called by:
  3690 ;;		_I2C_Master_Start
  3691 ;;		_I2C_Master_Stop
  3692 ;;		_I2C_Master_Write
  3693 ;;		_I2C_Master_Read
  3694 ;;		_I2C_Master_RepeatedStart
  3695 ;; This function uses a non-reentrant model
  3696 ;;
  3697                           
  3698                           
  3699                           ;psect for function _I2C_Master_Wait
  3700  1279                     _I2C_Master_Wait:
  3701  1279                     l2193:	
  3702                           ;incstack = 0
  3703                           ; Regs used in _I2C_Master_Wait: [wreg+status,2]
  3704                           
  3705  1279                     l163:	
  3706                           ;I2C.c: 19:     while ((SSPSTAT & 0x04) || (SSPCON2 & 0x1F));
  3707                           
  3708  1279  1683               	bsf	3,5	;RP0=1, select bank1
  3709  127A  1303               	bcf	3,6	;RP1=0, select bank1
  3710  127B  1914               	btfsc	20,2	;volatile
  3711  127C  2A7E               	goto	u2631
  3712  127D  2A7F               	goto	u2630
  3713  127E                     u2631:
  3714  127E  2A79               	goto	l163
  3715  127F                     u2630:
  3716  127F                     l2195:
  3717  127F  0811               	movf	17,w	;volatile
  3718  1280  391F               	andlw	31
  3719  1281  1D03               	btfss	3,2
  3720  1282  2A84               	goto	u2641
  3721  1283  2A85               	goto	u2640
  3722  1284                     u2641:
  3723  1284  2A79               	goto	l163
  3724  1285                     u2640:
  3725  1285                     l166:
  3726  1285  0008               	return
  3727  1286                     __end_of_I2C_Master_Wait:
  3728                           
  3729                           	psect	text18
  3730  001E                     __ptext18:	
  3731 ;; *************** function _ADC_convert *****************
  3732 ;; Defined at:
  3733 ;;		line 173 in file "P1_main_M.c"
  3734 ;; Parameters:    Size  Location     Type
  3735 ;;  data            1    wreg     PTR unsigned char 
  3736 ;;		 -> contador(10), ADC1(10), ADC0(10), 
  3737 ;;  a               4    0[BANK1 ] float 
  3738 ;;  place           2    4[BANK1 ] int 
  3739 ;; Auto vars:     Size  Location     Type
  3740 ;;  data            1   10[BANK1 ] PTR unsigned char 
  3741 ;;		 -> contador(10), ADC1(10), ADC0(10), 
  3742 ;;  x               4   11[BANK1 ] float 
  3743 ;;  mu              2   19[BANK1 ] int 
  3744 ;;  character       2   17[BANK1 ] int 
  3745 ;;  i               2   15[BANK1 ] int 
  3746 ;;  j               2    8[BANK1 ] int 
  3747 ;;  temp            2    6[BANK1 ] int 
  3748 ;; Return value:  Size  Location     Type
  3749 ;;                  1    wreg      void 
  3750 ;; Registers used:
  3751 ;;		wreg, fsr0l, fsr0h, status,2, status,0, btemp+1, pclath, cstack
  3752 ;; Tracked objects:
  3753 ;;		On entry : 0/0
  3754 ;;		On exit  : 0/0
  3755 ;;		Unchanged: 0/0
  3756 ;; Data sizes:     COMMON   BANK0   BANK1   BANK3   BANK2
  3757 ;;      Params:         0       0       6       0       0
  3758 ;;      Locals:         0       0      15       0       0
  3759 ;;      Temps:          0       2       0       0       0
  3760 ;;      Totals:         0       2      21       0       0
  3761 ;;Total ram usage:       23 bytes
  3762 ;; Hardware stack levels used:    1
  3763 ;; Hardware stack levels required when called:    3
  3764 ;; This function calls:
  3765 ;;		___awdiv
  3766 ;;		___fldiv
  3767 ;;		___flge
  3768 ;;		___flmul
  3769 ;;		___flsub
  3770 ;;		___fltol
  3771 ;;		___wmul
  3772 ;;		___xxtofl
  3773 ;; This function is called by:
  3774 ;;		_main
  3775 ;; This function uses a non-reentrant model
  3776 ;;
  3777                           
  3778                           
  3779                           ;psect for function _ADC_convert
  3780  001E                     _ADC_convert:
  3781                           
  3782                           ;incstack = 0
  3783                           ; Regs used in _ADC_convert: [wreg-fsr0h+status,2+status,0+btemp+1+pclath+cstack]
  3784                           ;ADC_convert@data stored from wreg
  3785  001E  1683               	bsf	3,5	;RP0=1, select bank1
  3786  001F  1303               	bcf	3,6	;RP1=0, select bank1
  3787  0020  00D7               	movwf	ADC_convert@data^(0+128)
  3788  0021                     l3351:
  3789                           
  3790                           ;P1_main_M.c: 175:      int temp=a;
  3791  0021  0850               	movf	(ADC_convert@a+3)^(0+128),w
  3792  0022  00F5               	movwf	___fltol@f1+3
  3793  0023  084F               	movf	(ADC_convert@a+2)^(0+128),w
  3794  0024  00F4               	movwf	___fltol@f1+2
  3795  0025  084E               	movf	(ADC_convert@a+1)^(0+128),w
  3796  0026  00F3               	movwf	___fltol@f1+1
  3797  0027  084D               	movf	ADC_convert@a^(0+128),w
  3798  0028  00F2               	movwf	___fltol@f1
  3799  0029  120A  158A  2007  120A  118A  	fcall	___fltol
  3800  002E  0873               	movf	?___fltol+1,w
  3801  002F  1683               	bsf	3,5	;RP0=1, select bank1
  3802  0030  1303               	bcf	3,6	;RP1=0, select bank1
  3803  0031  00D4               	movwf	(ADC_convert@temp+1)^(0+128)
  3804  0032  0872               	movf	?___fltol,w
  3805  0033  00D3               	movwf	ADC_convert@temp^(0+128)
  3806  0034                     l3353:
  3807  0034                     l3355:
  3808                           
  3809                           ;P1_main_M.c: 177:      int character=0;
  3810  0034  01DE               	clrf	ADC_convert@character^(0+128)
  3811  0035  01DF               	clrf	(ADC_convert@character+1)^(0+128)
  3812  0036                     l3357:
  3813                           
  3814                           ;P1_main_M.c: 178:      int i=0,mu=1;
  3815  0036  01DC               	clrf	ADC_convert@i^(0+128)
  3816  0037  01DD               	clrf	(ADC_convert@i+1)^(0+128)
  3817  0038                     l3359:
  3818  0038  3001               	movlw	1
  3819  0039  00E0               	movwf	ADC_convert@mu^(0+128)
  3820  003A  3000               	movlw	0
  3821  003B  00E1               	movwf	(ADC_convert@mu^(0+128)+1)
  3822  003C                     l3361:
  3823  003C                     l3363:
  3824                           
  3825                           ;P1_main_M.c: 180:      if(a<0) {
  3826  003C  0850               	movf	(ADC_convert@a+3)^(0+128),w
  3827  003D  00F5               	movwf	___flge@ff1+3
  3828  003E  084F               	movf	(ADC_convert@a+2)^(0+128),w
  3829  003F  00F4               	movwf	___flge@ff1+2
  3830  0040  084E               	movf	(ADC_convert@a+1)^(0+128),w
  3831  0041  00F3               	movwf	___flge@ff1+1
  3832  0042  084D               	movf	ADC_convert@a^(0+128),w
  3833  0043  00F2               	movwf	___flge@ff1
  3834  0044  3000               	movlw	0
  3835  0045  00F9               	movwf	___flge@ff2+3
  3836  0046  3000               	movlw	0
  3837  0047  00F8               	movwf	___flge@ff2+2
  3838  0048  3000               	movlw	0
  3839  0049  00F7               	movwf	___flge@ff2+1
  3840  004A  3000               	movlw	0
  3841  004B  00F6               	movwf	___flge@ff2
  3842  004C  160A  118A  26A0  120A  118A  	fcall	___flge
  3843  0051  1803               	btfsc	3,0
  3844  0052  2854               	goto	u4781
  3845  0053  2855               	goto	u4780
  3846  0054                     u4781:
  3847  0054  28C3               	goto	l3375
  3848  0055                     u4780:
  3849  0055                     l3365:
  3850                           
  3851                           ;P1_main_M.c: 181:         a=a*-1;
  3852  0055  30BF               	movlw	191
  3853  0056  1283               	bcf	3,5	;RP0=0, select bank0
  3854  0057  1303               	bcf	3,6	;RP1=0, select bank0
  3855  0058  00D4               	movwf	___flmul@b+3
  3856  0059  3080               	movlw	128
  3857  005A  00D3               	movwf	___flmul@b+2
  3858  005B  3000               	movlw	0
  3859  005C  00D2               	movwf	___flmul@b+1
  3860  005D  3000               	movlw	0
  3861  005E  00D1               	movwf	___flmul@b
  3862  005F  1683               	bsf	3,5	;RP0=1, select bank1
  3863  0060  1303               	bcf	3,6	;RP1=0, select bank1
  3864  0061  0850               	movf	(ADC_convert@a+3)^(0+128),w
  3865  0062  1283               	bcf	3,5	;RP0=0, select bank0
  3866  0063  1303               	bcf	3,6	;RP1=0, select bank0
  3867  0064  00D8               	movwf	___flmul@a+3
  3868  0065  1683               	bsf	3,5	;RP0=1, select bank1
  3869  0066  1303               	bcf	3,6	;RP1=0, select bank1
  3870  0067  084F               	movf	(ADC_convert@a+2)^(0+128),w
  3871  0068  1283               	bcf	3,5	;RP0=0, select bank0
  3872  0069  1303               	bcf	3,6	;RP1=0, select bank0
  3873  006A  00D7               	movwf	___flmul@a+2
  3874  006B  1683               	bsf	3,5	;RP0=1, select bank1
  3875  006C  1303               	bcf	3,6	;RP1=0, select bank1
  3876  006D  084E               	movf	(ADC_convert@a+1)^(0+128),w
  3877  006E  1283               	bcf	3,5	;RP0=0, select bank0
  3878  006F  1303               	bcf	3,6	;RP1=0, select bank0
  3879  0070  00D6               	movwf	___flmul@a+1
  3880  0071  1683               	bsf	3,5	;RP0=1, select bank1
  3881  0072  1303               	bcf	3,6	;RP1=0, select bank1
  3882  0073  084D               	movf	ADC_convert@a^(0+128),w
  3883  0074  1283               	bcf	3,5	;RP0=0, select bank0
  3884  0075  1303               	bcf	3,6	;RP1=0, select bank0
  3885  0076  00D5               	movwf	___flmul@a
  3886  0077  120A  118A  2480  120A  118A  	fcall	___flmul
  3887  007C  1283               	bcf	3,5	;RP0=0, select bank0
  3888  007D  1303               	bcf	3,6	;RP1=0, select bank0
  3889  007E  0854               	movf	?___flmul+3,w
  3890  007F  1683               	bsf	3,5	;RP0=1, select bank1
  3891  0080  1303               	bcf	3,6	;RP1=0, select bank1
  3892  0081  00D0               	movwf	(ADC_convert@a+3)^(0+128)
  3893  0082  1283               	bcf	3,5	;RP0=0, select bank0
  3894  0083  1303               	bcf	3,6	;RP1=0, select bank0
  3895  0084  0853               	movf	?___flmul+2,w
  3896  0085  1683               	bsf	3,5	;RP0=1, select bank1
  3897  0086  1303               	bcf	3,6	;RP1=0, select bank1
  3898  0087  00CF               	movwf	(ADC_convert@a+2)^(0+128)
  3899  0088  1283               	bcf	3,5	;RP0=0, select bank0
  3900  0089  1303               	bcf	3,6	;RP1=0, select bank0
  3901  008A  0852               	movf	?___flmul+1,w
  3902  008B  1683               	bsf	3,5	;RP0=1, select bank1
  3903  008C  1303               	bcf	3,6	;RP1=0, select bank1
  3904  008D  00CE               	movwf	(ADC_convert@a+1)^(0+128)
  3905  008E  1283               	bcf	3,5	;RP0=0, select bank0
  3906  008F  1303               	bcf	3,6	;RP1=0, select bank0
  3907  0090  0851               	movf	?___flmul,w
  3908  0091  1683               	bsf	3,5	;RP0=1, select bank1
  3909  0092  1303               	bcf	3,6	;RP1=0, select bank1
  3910  0093  00CD               	movwf	ADC_convert@a^(0+128)
  3911  0094                     l3367:
  3912                           
  3913                           ;P1_main_M.c: 182:         data[i]='-';
  3914  0094  302D               	movlw	45
  3915  0095  1283               	bcf	3,5	;RP0=0, select bank0
  3916  0096  1303               	bcf	3,6	;RP1=0, select bank0
  3917  0097  00EB               	movwf	??_ADC_convert
  3918  0098  1683               	bsf	3,5	;RP0=1, select bank1
  3919  0099  1303               	bcf	3,6	;RP1=0, select bank1
  3920  009A  0857               	movf	ADC_convert@data^(0+128),w
  3921  009B  0084               	movwf	4
  3922  009C  1283               	bcf	3,5	;RP0=0, select bank0
  3923  009D  1303               	bcf	3,6	;RP1=0, select bank0
  3924  009E  086B               	movf	??_ADC_convert,w
  3925  009F  1383               	bcf	3,7	;select IRP bank0
  3926  00A0  0080               	movwf	0
  3927  00A1                     l3369:
  3928                           
  3929                           ;P1_main_M.c: 183:         i++;
  3930  00A1  3001               	movlw	1
  3931  00A2  1683               	bsf	3,5	;RP0=1, select bank1
  3932  00A3  1303               	bcf	3,6	;RP1=0, select bank1
  3933  00A4  07DC               	addwf	ADC_convert@i^(0+128),f
  3934  00A5  1803               	skipnc
  3935  00A6  0ADD               	incf	(ADC_convert@i+1)^(0+128),f
  3936  00A7  3000               	movlw	0
  3937  00A8  07DD               	addwf	(ADC_convert@i+1)^(0+128),f
  3938  00A9  28C3               	goto	l3375
  3939  00AA                     l3371:
  3940                           
  3941                           ;P1_main_M.c: 187:         temp=temp/10;
  3942  00AA  300A               	movlw	10
  3943  00AB  00F2               	movwf	___awdiv@divisor
  3944  00AC  3000               	movlw	0
  3945  00AD  00F3               	movwf	___awdiv@divisor+1
  3946  00AE  0854               	movf	(ADC_convert@temp+1)^(0+128),w
  3947  00AF  00F5               	movwf	___awdiv@dividend+1
  3948  00B0  0853               	movf	ADC_convert@temp^(0+128),w
  3949  00B1  00F4               	movwf	___awdiv@dividend
  3950  00B2  160A  118A  2637  120A  118A  	fcall	___awdiv
  3951  00B7  0873               	movf	?___awdiv+1,w
  3952  00B8  1683               	bsf	3,5	;RP0=1, select bank1
  3953  00B9  1303               	bcf	3,6	;RP1=0, select bank1
  3954  00BA  00D4               	movwf	(ADC_convert@temp+1)^(0+128)
  3955  00BB  0872               	movf	?___awdiv,w
  3956  00BC  00D3               	movwf	ADC_convert@temp^(0+128)
  3957  00BD                     l3373:
  3958                           
  3959                           ;P1_main_M.c: 188:         character++;
  3960  00BD  3001               	movlw	1
  3961  00BE  07DE               	addwf	ADC_convert@character^(0+128),f
  3962  00BF  1803               	skipnc
  3963  00C0  0ADF               	incf	(ADC_convert@character+1)^(0+128),f
  3964  00C1  3000               	movlw	0
  3965  00C2  07DF               	addwf	(ADC_convert@character+1)^(0+128),f
  3966  00C3                     l3375:
  3967                           
  3968                           ;P1_main_M.c: 186:      while(temp!=0) {
  3969  00C3  1683               	bsf	3,5	;RP0=1, select bank1
  3970  00C4  1303               	bcf	3,6	;RP1=0, select bank1
  3971  00C5  0853               	movf	ADC_convert@temp^(0+128),w
  3972  00C6  0454               	iorwf	(ADC_convert@temp+1)^(0+128),w
  3973  00C7  1D03               	btfss	3,2
  3974  00C8  28CA               	goto	u4791
  3975  00C9  28CB               	goto	u4790
  3976  00CA                     u4791:
  3977  00CA  28AA               	goto	l3371
  3978  00CB                     u4790:
  3979  00CB  2A13               	goto	l3399
  3980  00CC                     l3377:
  3981                           
  3982                           ;P1_main_M.c: 192:         if(character==1)mu=1;
  3983  00CC  035E               	decf	ADC_convert@character^(0+128),w
  3984  00CD  045F               	iorwf	(ADC_convert@character+1)^(0+128),w
  3985  00CE  1D03               	btfss	3,2
  3986  00CF  28D1               	goto	u4801
  3987  00D0  28D2               	goto	u4800
  3988  00D1                     u4801:
  3989  00D1  28D7               	goto	l3381
  3990  00D2                     u4800:
  3991  00D2                     l3379:
  3992  00D2  3001               	movlw	1
  3993  00D3  00E0               	movwf	ADC_convert@mu^(0+128)
  3994  00D4  3000               	movlw	0
  3995  00D5  00E1               	movwf	(ADC_convert@mu^(0+128)+1)
  3996  00D6  2919               	goto	l3389
  3997  00D7                     l3381:
  3998  00D7  3002               	movlw	2
  3999  00D8  00D5               	movwf	ADC_convert@j^(0+128)
  4000  00D9  3000               	movlw	0
  4001  00DA  00D6               	movwf	(ADC_convert@j^(0+128)+1)
  4002  00DB  2903               	goto	l3387
  4003  00DC                     l3383:
  4004  00DC  1683               	bsf	3,5	;RP0=1, select bank1
  4005  00DD  1303               	bcf	3,6	;RP1=0, select bank1
  4006  00DE  0861               	movf	(ADC_convert@mu+1)^(0+128),w
  4007  00DF  1283               	bcf	3,5	;RP0=0, select bank0
  4008  00E0  1303               	bcf	3,6	;RP1=0, select bank0
  4009  00E1  00A6               	movwf	___wmul@multiplier+1
  4010  00E2  1683               	bsf	3,5	;RP0=1, select bank1
  4011  00E3  1303               	bcf	3,6	;RP1=0, select bank1
  4012  00E4  0860               	movf	ADC_convert@mu^(0+128),w
  4013  00E5  1283               	bcf	3,5	;RP0=0, select bank0
  4014  00E6  1303               	bcf	3,6	;RP1=0, select bank0
  4015  00E7  00A5               	movwf	___wmul@multiplier
  4016  00E8  300A               	movlw	10
  4017  00E9  00A7               	movwf	___wmul@multiplicand
  4018  00EA  3000               	movlw	0
  4019  00EB  00A8               	movwf	___wmul@multiplicand+1
  4020  00EC  160A  118A  22F3  120A  118A  	fcall	___wmul
  4021  00F1  1283               	bcf	3,5	;RP0=0, select bank0
  4022  00F2  1303               	bcf	3,6	;RP1=0, select bank0
  4023  00F3  0826               	movf	?___wmul+1,w
  4024  00F4  1683               	bsf	3,5	;RP0=1, select bank1
  4025  00F5  1303               	bcf	3,6	;RP1=0, select bank1
  4026  00F6  00E1               	movwf	(ADC_convert@mu+1)^(0+128)
  4027  00F7  1283               	bcf	3,5	;RP0=0, select bank0
  4028  00F8  1303               	bcf	3,6	;RP1=0, select bank0
  4029  00F9  0825               	movf	?___wmul,w
  4030  00FA  1683               	bsf	3,5	;RP0=1, select bank1
  4031  00FB  1303               	bcf	3,6	;RP1=0, select bank1
  4032  00FC  00E0               	movwf	ADC_convert@mu^(0+128)
  4033  00FD                     l3385:
  4034  00FD  3001               	movlw	1
  4035  00FE  07D5               	addwf	ADC_convert@j^(0+128),f
  4036  00FF  1803               	skipnc
  4037  0100  0AD6               	incf	(ADC_convert@j+1)^(0+128),f
  4038  0101  3000               	movlw	0
  4039  0102  07D6               	addwf	(ADC_convert@j+1)^(0+128),f
  4040  0103                     l3387:
  4041  0103  085F               	movf	(ADC_convert@character+1)^(0+128),w
  4042  0104  3A80               	xorlw	128
  4043  0105  1283               	bcf	3,5	;RP0=0, select bank0
  4044  0106  1303               	bcf	3,6	;RP1=0, select bank0
  4045  0107  00EB               	movwf	??_ADC_convert
  4046  0108  1683               	bsf	3,5	;RP0=1, select bank1
  4047  0109  1303               	bcf	3,6	;RP1=0, select bank1
  4048  010A  0856               	movf	(ADC_convert@j+1)^(0+128),w
  4049  010B  3A80               	xorlw	128
  4050  010C  1283               	bcf	3,5	;RP0=0, select bank0
  4051  010D  1303               	bcf	3,6	;RP1=0, select bank0
  4052  010E  026B               	subwf	??_ADC_convert,w
  4053  010F  1D03               	skipz
  4054  0110  2915               	goto	u4815
  4055  0111  1683               	bsf	3,5	;RP0=1, select bank1
  4056  0112  1303               	bcf	3,6	;RP1=0, select bank1
  4057  0113  0855               	movf	ADC_convert@j^(0+128),w
  4058  0114  025E               	subwf	ADC_convert@character^(0+128),w
  4059  0115                     u4815:
  4060  0115  1803               	skipnc
  4061  0116  2918               	goto	u4811
  4062  0117  2919               	goto	u4810
  4063  0118                     u4811:
  4064  0118  28DC               	goto	l3383
  4065  0119                     u4810:
  4066  0119                     l3389:
  4067                           
  4068                           ;P1_main_M.c: 195:         x=a/mu;
  4069  0119  1683               	bsf	3,5	;RP0=1, select bank1
  4070  011A  1303               	bcf	3,6	;RP1=0, select bank1
  4071  011B  0860               	movf	ADC_convert@mu^(0+128),w
  4072  011C  1283               	bcf	3,5	;RP0=0, select bank0
  4073  011D  1303               	bcf	3,6	;RP1=0, select bank0
  4074  011E  00A9               	movwf	___xxtofl@val
  4075  011F  1683               	bsf	3,5	;RP0=1, select bank1
  4076  0120  1303               	bcf	3,6	;RP1=0, select bank1
  4077  0121  0861               	movf	(ADC_convert@mu+1)^(0+128),w
  4078  0122  1283               	bcf	3,5	;RP0=0, select bank0
  4079  0123  1303               	bcf	3,6	;RP1=0, select bank0
  4080  0124  00AA               	movwf	___xxtofl@val+1
  4081  0125  3000               	movlw	0
  4082  0126  1BAA               	btfsc	___xxtofl@val+1,7
  4083  0127  30FF               	movlw	255
  4084  0128  00AB               	movwf	___xxtofl@val+2
  4085  0129  00AC               	movwf	___xxtofl@val+3
  4086  012A  3001               	movlw	1
  4087  012B  160A  118A  2744  120A  118A  	fcall	___xxtofl
  4088  0130  1283               	bcf	3,5	;RP0=0, select bank0
  4089  0131  1303               	bcf	3,6	;RP1=0, select bank0
  4090  0132  082C               	movf	?___xxtofl+3,w
  4091  0133  00BA               	movwf	___fldiv@a+3
  4092  0134  082B               	movf	?___xxtofl+2,w
  4093  0135  00B9               	movwf	___fldiv@a+2
  4094  0136  082A               	movf	?___xxtofl+1,w
  4095  0137  00B8               	movwf	___fldiv@a+1
  4096  0138  0829               	movf	?___xxtofl,w
  4097  0139  00B7               	movwf	___fldiv@a
  4098  013A  1683               	bsf	3,5	;RP0=1, select bank1
  4099  013B  1303               	bcf	3,6	;RP1=0, select bank1
  4100  013C  0850               	movf	(ADC_convert@a+3)^(0+128),w
  4101  013D  1283               	bcf	3,5	;RP0=0, select bank0
  4102  013E  1303               	bcf	3,6	;RP1=0, select bank0
  4103  013F  00BE               	movwf	___fldiv@b+3
  4104  0140  1683               	bsf	3,5	;RP0=1, select bank1
  4105  0141  1303               	bcf	3,6	;RP1=0, select bank1
  4106  0142  084F               	movf	(ADC_convert@a+2)^(0+128),w
  4107  0143  1283               	bcf	3,5	;RP0=0, select bank0
  4108  0144  1303               	bcf	3,6	;RP1=0, select bank0
  4109  0145  00BD               	movwf	___fldiv@b+2
  4110  0146  1683               	bsf	3,5	;RP0=1, select bank1
  4111  0147  1303               	bcf	3,6	;RP1=0, select bank1
  4112  0148  084E               	movf	(ADC_convert@a+1)^(0+128),w
  4113  0149  1283               	bcf	3,5	;RP0=0, select bank0
  4114  014A  1303               	bcf	3,6	;RP1=0, select bank0
  4115  014B  00BC               	movwf	___fldiv@b+1
  4116  014C  1683               	bsf	3,5	;RP0=1, select bank1
  4117  014D  1303               	bcf	3,6	;RP1=0, select bank1
  4118  014E  084D               	movf	ADC_convert@a^(0+128),w
  4119  014F  1283               	bcf	3,5	;RP0=0, select bank0
  4120  0150  1303               	bcf	3,6	;RP1=0, select bank0
  4121  0151  00BB               	movwf	___fldiv@b
  4122  0152  120A  158A  2083  120A  118A  	fcall	___fldiv
  4123  0157  1283               	bcf	3,5	;RP0=0, select bank0
  4124  0158  1303               	bcf	3,6	;RP1=0, select bank0
  4125  0159  083A               	movf	?___fldiv+3,w
  4126  015A  1683               	bsf	3,5	;RP0=1, select bank1
  4127  015B  1303               	bcf	3,6	;RP1=0, select bank1
  4128  015C  00DB               	movwf	(ADC_convert@x+3)^(0+128)
  4129  015D  1283               	bcf	3,5	;RP0=0, select bank0
  4130  015E  1303               	bcf	3,6	;RP1=0, select bank0
  4131  015F  0839               	movf	?___fldiv+2,w
  4132  0160  1683               	bsf	3,5	;RP0=1, select bank1
  4133  0161  1303               	bcf	3,6	;RP1=0, select bank1
  4134  0162  00DA               	movwf	(ADC_convert@x+2)^(0+128)
  4135  0163  1283               	bcf	3,5	;RP0=0, select bank0
  4136  0164  1303               	bcf	3,6	;RP1=0, select bank0
  4137  0165  0838               	movf	?___fldiv+1,w
  4138  0166  1683               	bsf	3,5	;RP0=1, select bank1
  4139  0167  1303               	bcf	3,6	;RP1=0, select bank1
  4140  0168  00D9               	movwf	(ADC_convert@x+1)^(0+128)
  4141  0169  1283               	bcf	3,5	;RP0=0, select bank0
  4142  016A  1303               	bcf	3,6	;RP1=0, select bank0
  4143  016B  0837               	movf	?___fldiv,w
  4144  016C  1683               	bsf	3,5	;RP0=1, select bank1
  4145  016D  1303               	bcf	3,6	;RP1=0, select bank1
  4146  016E  00D8               	movwf	ADC_convert@x^(0+128)
  4147                           
  4148                           ;P1_main_M.c: 196:         a=a-((int)x*mu);
  4149  016F  0861               	movf	(ADC_convert@mu+1)^(0+128),w
  4150  0170  1283               	bcf	3,5	;RP0=0, select bank0
  4151  0171  1303               	bcf	3,6	;RP1=0, select bank0
  4152  0172  00A8               	movwf	___wmul@multiplicand+1
  4153  0173  1683               	bsf	3,5	;RP0=1, select bank1
  4154  0174  1303               	bcf	3,6	;RP1=0, select bank1
  4155  0175  0860               	movf	ADC_convert@mu^(0+128),w
  4156  0176  1283               	bcf	3,5	;RP0=0, select bank0
  4157  0177  1303               	bcf	3,6	;RP1=0, select bank0
  4158  0178  00A7               	movwf	___wmul@multiplicand
  4159  0179  1683               	bsf	3,5	;RP0=1, select bank1
  4160  017A  1303               	bcf	3,6	;RP1=0, select bank1
  4161  017B  085B               	movf	(ADC_convert@x+3)^(0+128),w
  4162  017C  00F5               	movwf	___fltol@f1+3
  4163  017D  085A               	movf	(ADC_convert@x+2)^(0+128),w
  4164  017E  00F4               	movwf	___fltol@f1+2
  4165  017F  0859               	movf	(ADC_convert@x+1)^(0+128),w
  4166  0180  00F3               	movwf	___fltol@f1+1
  4167  0181  0858               	movf	ADC_convert@x^(0+128),w
  4168  0182  00F2               	movwf	___fltol@f1
  4169  0183  120A  158A  2007  120A  118A  	fcall	___fltol
  4170  0188  0873               	movf	?___fltol+1,w
  4171  0189  1283               	bcf	3,5	;RP0=0, select bank0
  4172  018A  1303               	bcf	3,6	;RP1=0, select bank0
  4173  018B  00A6               	movwf	___wmul@multiplier+1
  4174  018C  0872               	movf	?___fltol,w
  4175  018D  00A5               	movwf	___wmul@multiplier
  4176  018E  160A  118A  22F3  120A  118A  	fcall	___wmul
  4177  0193  1283               	bcf	3,5	;RP0=0, select bank0
  4178  0194  1303               	bcf	3,6	;RP1=0, select bank0
  4179  0195  0825               	movf	?___wmul,w
  4180  0196  00A9               	movwf	___xxtofl@val
  4181  0197  0826               	movf	?___wmul+1,w
  4182  0198  00AA               	movwf	___xxtofl@val+1
  4183  0199  3000               	movlw	0
  4184  019A  1BAA               	btfsc	___xxtofl@val+1,7
  4185  019B  30FF               	movlw	255
  4186  019C  00AB               	movwf	___xxtofl@val+2
  4187  019D  00AC               	movwf	___xxtofl@val+3
  4188  019E  3001               	movlw	1
  4189  019F  160A  118A  2744  120A  118A  	fcall	___xxtofl
  4190  01A4  1283               	bcf	3,5	;RP0=0, select bank0
  4191  01A5  1303               	bcf	3,6	;RP1=0, select bank0
  4192  01A6  082C               	movf	?___xxtofl+3,w
  4193  01A7  00BA               	movwf	___flsub@a+3
  4194  01A8  082B               	movf	?___xxtofl+2,w
  4195  01A9  00B9               	movwf	___flsub@a+2
  4196  01AA  082A               	movf	?___xxtofl+1,w
  4197  01AB  00B8               	movwf	___flsub@a+1
  4198  01AC  0829               	movf	?___xxtofl,w
  4199  01AD  00B7               	movwf	___flsub@a
  4200  01AE  1683               	bsf	3,5	;RP0=1, select bank1
  4201  01AF  1303               	bcf	3,6	;RP1=0, select bank1
  4202  01B0  0850               	movf	(ADC_convert@a+3)^(0+128),w
  4203  01B1  1283               	bcf	3,5	;RP0=0, select bank0
  4204  01B2  1303               	bcf	3,6	;RP1=0, select bank0
  4205  01B3  00BE               	movwf	___flsub@b+3
  4206  01B4  1683               	bsf	3,5	;RP0=1, select bank1
  4207  01B5  1303               	bcf	3,6	;RP1=0, select bank1
  4208  01B6  084F               	movf	(ADC_convert@a+2)^(0+128),w
  4209  01B7  1283               	bcf	3,5	;RP0=0, select bank0
  4210  01B8  1303               	bcf	3,6	;RP1=0, select bank0
  4211  01B9  00BD               	movwf	___flsub@b+2
  4212  01BA  1683               	bsf	3,5	;RP0=1, select bank1
  4213  01BB  1303               	bcf	3,6	;RP1=0, select bank1
  4214  01BC  084E               	movf	(ADC_convert@a+1)^(0+128),w
  4215  01BD  1283               	bcf	3,5	;RP0=0, select bank0
  4216  01BE  1303               	bcf	3,6	;RP1=0, select bank0
  4217  01BF  00BC               	movwf	___flsub@b+1
  4218  01C0  1683               	bsf	3,5	;RP0=1, select bank1
  4219  01C1  1303               	bcf	3,6	;RP1=0, select bank1
  4220  01C2  084D               	movf	ADC_convert@a^(0+128),w
  4221  01C3  1283               	bcf	3,5	;RP0=0, select bank0
  4222  01C4  1303               	bcf	3,6	;RP1=0, select bank0
  4223  01C5  00BB               	movwf	___flsub@b
  4224  01C6  160A  118A  22CF  120A  118A  	fcall	___flsub
  4225  01CB  1283               	bcf	3,5	;RP0=0, select bank0
  4226  01CC  1303               	bcf	3,6	;RP1=0, select bank0
  4227  01CD  083A               	movf	?___flsub+3,w
  4228  01CE  1683               	bsf	3,5	;RP0=1, select bank1
  4229  01CF  1303               	bcf	3,6	;RP1=0, select bank1
  4230  01D0  00D0               	movwf	(ADC_convert@a+3)^(0+128)
  4231  01D1  1283               	bcf	3,5	;RP0=0, select bank0
  4232  01D2  1303               	bcf	3,6	;RP1=0, select bank0
  4233  01D3  0839               	movf	?___flsub+2,w
  4234  01D4  1683               	bsf	3,5	;RP0=1, select bank1
  4235  01D5  1303               	bcf	3,6	;RP1=0, select bank1
  4236  01D6  00CF               	movwf	(ADC_convert@a+2)^(0+128)
  4237  01D7  1283               	bcf	3,5	;RP0=0, select bank0
  4238  01D8  1303               	bcf	3,6	;RP1=0, select bank0
  4239  01D9  0838               	movf	?___flsub+1,w
  4240  01DA  1683               	bsf	3,5	;RP0=1, select bank1
  4241  01DB  1303               	bcf	3,6	;RP1=0, select bank1
  4242  01DC  00CE               	movwf	(ADC_convert@a+1)^(0+128)
  4243  01DD  1283               	bcf	3,5	;RP0=0, select bank0
  4244  01DE  1303               	bcf	3,6	;RP1=0, select bank0
  4245  01DF  0837               	movf	?___flsub,w
  4246  01E0  1683               	bsf	3,5	;RP0=1, select bank1
  4247  01E1  1303               	bcf	3,6	;RP1=0, select bank1
  4248  01E2  00CD               	movwf	ADC_convert@a^(0+128)
  4249  01E3                     l3391:
  4250                           
  4251                           ;P1_main_M.c: 197:         data[i]=0x30+((int)x);
  4252  01E3  085B               	movf	(ADC_convert@x+3)^(0+128),w
  4253  01E4  00F5               	movwf	___fltol@f1+3
  4254  01E5  085A               	movf	(ADC_convert@x+2)^(0+128),w
  4255  01E6  00F4               	movwf	___fltol@f1+2
  4256  01E7  0859               	movf	(ADC_convert@x+1)^(0+128),w
  4257  01E8  00F3               	movwf	___fltol@f1+1
  4258  01E9  0858               	movf	ADC_convert@x^(0+128),w
  4259  01EA  00F2               	movwf	___fltol@f1
  4260  01EB  120A  158A  2007  120A  118A  	fcall	___fltol
  4261  01F0  0872               	movf	?___fltol,w
  4262  01F1  3E30               	addlw	48
  4263  01F2  1283               	bcf	3,5	;RP0=0, select bank0
  4264  01F3  1303               	bcf	3,6	;RP1=0, select bank0
  4265  01F4  00EB               	movwf	??_ADC_convert
  4266  01F5  1683               	bsf	3,5	;RP0=1, select bank1
  4267  01F6  1303               	bcf	3,6	;RP1=0, select bank1
  4268  01F7  085C               	movf	ADC_convert@i^(0+128),w
  4269  01F8  0757               	addwf	ADC_convert@data^(0+128),w
  4270  01F9  1283               	bcf	3,5	;RP0=0, select bank0
  4271  01FA  1303               	bcf	3,6	;RP1=0, select bank0
  4272  01FB  00EC               	movwf	??_ADC_convert+1
  4273  01FC  086C               	movf	??_ADC_convert+1,w
  4274  01FD  0084               	movwf	4
  4275  01FE  086B               	movf	??_ADC_convert,w
  4276  01FF  1383               	bcf	3,7	;select IRP bank0
  4277  0200  0080               	movwf	0
  4278  0201                     l3393:
  4279                           
  4280                           ;P1_main_M.c: 198:         i++;
  4281  0201  3001               	movlw	1
  4282  0202  1683               	bsf	3,5	;RP0=1, select bank1
  4283  0203  1303               	bcf	3,6	;RP1=0, select bank1
  4284  0204  07DC               	addwf	ADC_convert@i^(0+128),f
  4285  0205  1803               	skipnc
  4286  0206  0ADD               	incf	(ADC_convert@i+1)^(0+128),f
  4287  0207  3000               	movlw	0
  4288  0208  07DD               	addwf	(ADC_convert@i+1)^(0+128),f
  4289  0209                     l3395:
  4290                           
  4291                           ;P1_main_M.c: 199:         character--;
  4292  0209  30FF               	movlw	255
  4293  020A  07DE               	addwf	ADC_convert@character^(0+128),f
  4294  020B  1803               	skipnc
  4295  020C  0ADF               	incf	(ADC_convert@character+1)^(0+128),f
  4296  020D  30FF               	movlw	255
  4297  020E  07DF               	addwf	(ADC_convert@character+1)^(0+128),f
  4298  020F                     l3397:
  4299                           
  4300                           ;P1_main_M.c: 200:         mu=1;
  4301  020F  3001               	movlw	1
  4302  0210  00E0               	movwf	ADC_convert@mu^(0+128)
  4303  0211  3000               	movlw	0
  4304  0212  00E1               	movwf	(ADC_convert@mu^(0+128)+1)
  4305  0213                     l3399:
  4306                           
  4307                           ;P1_main_M.c: 191:      while(character!=0) {
  4308  0213  085E               	movf	ADC_convert@character^(0+128),w
  4309  0214  045F               	iorwf	(ADC_convert@character+1)^(0+128),w
  4310  0215  1D03               	btfss	3,2
  4311  0216  2A18               	goto	u4821
  4312  0217  2A19               	goto	u4820
  4313  0218                     u4821:
  4314  0218  28CC               	goto	l3377
  4315  0219                     u4820:
  4316  0219                     l3401:
  4317                           
  4318                           ;P1_main_M.c: 203:     data[i]='.';
  4319  0219  302E               	movlw	46
  4320  021A  1283               	bcf	3,5	;RP0=0, select bank0
  4321  021B  1303               	bcf	3,6	;RP1=0, select bank0
  4322  021C  00EB               	movwf	??_ADC_convert
  4323  021D  1683               	bsf	3,5	;RP0=1, select bank1
  4324  021E  1303               	bcf	3,6	;RP1=0, select bank1
  4325  021F  085C               	movf	ADC_convert@i^(0+128),w
  4326  0220  0757               	addwf	ADC_convert@data^(0+128),w
  4327  0221  1283               	bcf	3,5	;RP0=0, select bank0
  4328  0222  1303               	bcf	3,6	;RP1=0, select bank0
  4329  0223  00EC               	movwf	??_ADC_convert+1
  4330  0224  086C               	movf	??_ADC_convert+1,w
  4331  0225  0084               	movwf	4
  4332  0226  086B               	movf	??_ADC_convert,w
  4333  0227  1383               	bcf	3,7	;select IRP bank0
  4334  0228  0080               	movwf	0
  4335  0229                     l3403:
  4336                           
  4337                           ;P1_main_M.c: 204:     i++;
  4338  0229  3001               	movlw	1
  4339  022A  1683               	bsf	3,5	;RP0=1, select bank1
  4340  022B  1303               	bcf	3,6	;RP1=0, select bank1
  4341  022C  07DC               	addwf	ADC_convert@i^(0+128),f
  4342  022D  1803               	skipnc
  4343  022E  0ADD               	incf	(ADC_convert@i+1)^(0+128),f
  4344  022F  3000               	movlw	0
  4345  0230  07DD               	addwf	(ADC_convert@i+1)^(0+128),f
  4346  0231                     l3405:
  4347  0231                     l3407:
  4348                           
  4349                           ;P1_main_M.c: 206:     for(j=1;j<=place;j++)mu=mu*10;
  4350  0231  3001               	movlw	1
  4351  0232  00D5               	movwf	ADC_convert@j^(0+128)
  4352  0233  3000               	movlw	0
  4353  0234  00D6               	movwf	(ADC_convert@j^(0+128)+1)
  4354  0235  2A5D               	goto	l3413
  4355  0236                     l3409:
  4356  0236  1683               	bsf	3,5	;RP0=1, select bank1
  4357  0237  1303               	bcf	3,6	;RP1=0, select bank1
  4358  0238  0861               	movf	(ADC_convert@mu+1)^(0+128),w
  4359  0239  1283               	bcf	3,5	;RP0=0, select bank0
  4360  023A  1303               	bcf	3,6	;RP1=0, select bank0
  4361  023B  00A6               	movwf	___wmul@multiplier+1
  4362  023C  1683               	bsf	3,5	;RP0=1, select bank1
  4363  023D  1303               	bcf	3,6	;RP1=0, select bank1
  4364  023E  0860               	movf	ADC_convert@mu^(0+128),w
  4365  023F  1283               	bcf	3,5	;RP0=0, select bank0
  4366  0240  1303               	bcf	3,6	;RP1=0, select bank0
  4367  0241  00A5               	movwf	___wmul@multiplier
  4368  0242  300A               	movlw	10
  4369  0243  00A7               	movwf	___wmul@multiplicand
  4370  0244  3000               	movlw	0
  4371  0245  00A8               	movwf	___wmul@multiplicand+1
  4372  0246  160A  118A  22F3  120A  118A  	fcall	___wmul
  4373  024B  1283               	bcf	3,5	;RP0=0, select bank0
  4374  024C  1303               	bcf	3,6	;RP1=0, select bank0
  4375  024D  0826               	movf	?___wmul+1,w
  4376  024E  1683               	bsf	3,5	;RP0=1, select bank1
  4377  024F  1303               	bcf	3,6	;RP1=0, select bank1
  4378  0250  00E1               	movwf	(ADC_convert@mu+1)^(0+128)
  4379  0251  1283               	bcf	3,5	;RP0=0, select bank0
  4380  0252  1303               	bcf	3,6	;RP1=0, select bank0
  4381  0253  0825               	movf	?___wmul,w
  4382  0254  1683               	bsf	3,5	;RP0=1, select bank1
  4383  0255  1303               	bcf	3,6	;RP1=0, select bank1
  4384  0256  00E0               	movwf	ADC_convert@mu^(0+128)
  4385  0257                     l3411:
  4386  0257  3001               	movlw	1
  4387  0258  07D5               	addwf	ADC_convert@j^(0+128),f
  4388  0259  1803               	skipnc
  4389  025A  0AD6               	incf	(ADC_convert@j+1)^(0+128),f
  4390  025B  3000               	movlw	0
  4391  025C  07D6               	addwf	(ADC_convert@j+1)^(0+128),f
  4392  025D                     l3413:
  4393  025D  0852               	movf	(ADC_convert@place+1)^(0+128),w
  4394  025E  3A80               	xorlw	128
  4395  025F  1283               	bcf	3,5	;RP0=0, select bank0
  4396  0260  1303               	bcf	3,6	;RP1=0, select bank0
  4397  0261  00EB               	movwf	??_ADC_convert
  4398  0262  1683               	bsf	3,5	;RP0=1, select bank1
  4399  0263  1303               	bcf	3,6	;RP1=0, select bank1
  4400  0264  0856               	movf	(ADC_convert@j+1)^(0+128),w
  4401  0265  3A80               	xorlw	128
  4402  0266  1283               	bcf	3,5	;RP0=0, select bank0
  4403  0267  1303               	bcf	3,6	;RP1=0, select bank0
  4404  0268  026B               	subwf	??_ADC_convert,w
  4405  0269  1D03               	skipz
  4406  026A  2A6F               	goto	u4835
  4407  026B  1683               	bsf	3,5	;RP0=1, select bank1
  4408  026C  1303               	bcf	3,6	;RP1=0, select bank1
  4409  026D  0855               	movf	ADC_convert@j^(0+128),w
  4410  026E  0251               	subwf	ADC_convert@place^(0+128),w
  4411  026F                     u4835:
  4412  026F  1803               	skipnc
  4413  0270  2A72               	goto	u4831
  4414  0271  2A73               	goto	u4830
  4415  0272                     u4831:
  4416  0272  2A36               	goto	l3409
  4417  0273                     u4830:
  4418  0273                     l3415:
  4419                           
  4420                           ;P1_main_M.c: 207:     x=(a-(int)a)*mu;
  4421  0273  1683               	bsf	3,5	;RP0=1, select bank1
  4422  0274  1303               	bcf	3,6	;RP1=0, select bank1
  4423  0275  0860               	movf	ADC_convert@mu^(0+128),w
  4424  0276  1283               	bcf	3,5	;RP0=0, select bank0
  4425  0277  1303               	bcf	3,6	;RP1=0, select bank0
  4426  0278  00A9               	movwf	___xxtofl@val
  4427  0279  1683               	bsf	3,5	;RP0=1, select bank1
  4428  027A  1303               	bcf	3,6	;RP1=0, select bank1
  4429  027B  0861               	movf	(ADC_convert@mu+1)^(0+128),w
  4430  027C  1283               	bcf	3,5	;RP0=0, select bank0
  4431  027D  1303               	bcf	3,6	;RP1=0, select bank0
  4432  027E  00AA               	movwf	___xxtofl@val+1
  4433  027F  3000               	movlw	0
  4434  0280  1BAA               	btfsc	___xxtofl@val+1,7
  4435  0281  30FF               	movlw	255
  4436  0282  00AB               	movwf	___xxtofl@val+2
  4437  0283  00AC               	movwf	___xxtofl@val+3
  4438  0284  3001               	movlw	1
  4439  0285  160A  118A  2744  120A  118A  	fcall	___xxtofl
  4440  028A  1283               	bcf	3,5	;RP0=0, select bank0
  4441  028B  1303               	bcf	3,6	;RP1=0, select bank0
  4442  028C  082C               	movf	?___xxtofl+3,w
  4443  028D  00D4               	movwf	___flmul@b+3
  4444  028E  082B               	movf	?___xxtofl+2,w
  4445  028F  00D3               	movwf	___flmul@b+2
  4446  0290  082A               	movf	?___xxtofl+1,w
  4447  0291  00D2               	movwf	___flmul@b+1
  4448  0292  0829               	movf	?___xxtofl,w
  4449  0293  00D1               	movwf	___flmul@b
  4450  0294  1683               	bsf	3,5	;RP0=1, select bank1
  4451  0295  1303               	bcf	3,6	;RP1=0, select bank1
  4452  0296  0850               	movf	(ADC_convert@a+3)^(0+128),w
  4453  0297  00F5               	movwf	___fltol@f1+3
  4454  0298  084F               	movf	(ADC_convert@a+2)^(0+128),w
  4455  0299  00F4               	movwf	___fltol@f1+2
  4456  029A  084E               	movf	(ADC_convert@a+1)^(0+128),w
  4457  029B  00F3               	movwf	___fltol@f1+1
  4458  029C  084D               	movf	ADC_convert@a^(0+128),w
  4459  029D  00F2               	movwf	___fltol@f1
  4460  029E  120A  158A  2007  120A  118A  	fcall	___fltol
  4461  02A3  0872               	movf	?___fltol,w
  4462  02A4  1283               	bcf	3,5	;RP0=0, select bank0
  4463  02A5  1303               	bcf	3,6	;RP1=0, select bank0
  4464  02A6  00A9               	movwf	___xxtofl@val
  4465  02A7  0873               	movf	?___fltol+1,w
  4466  02A8  00AA               	movwf	___xxtofl@val+1
  4467  02A9  3000               	movlw	0
  4468  02AA  1BAA               	btfsc	___xxtofl@val+1,7
  4469  02AB  30FF               	movlw	255
  4470  02AC  00AB               	movwf	___xxtofl@val+2
  4471  02AD  00AC               	movwf	___xxtofl@val+3
  4472  02AE  3001               	movlw	1
  4473  02AF  160A  118A  2744  120A  118A  	fcall	___xxtofl
  4474  02B4  1283               	bcf	3,5	;RP0=0, select bank0
  4475  02B5  1303               	bcf	3,6	;RP1=0, select bank0
  4476  02B6  082C               	movf	?___xxtofl+3,w
  4477  02B7  00BA               	movwf	___flsub@a+3
  4478  02B8  082B               	movf	?___xxtofl+2,w
  4479  02B9  00B9               	movwf	___flsub@a+2
  4480  02BA  082A               	movf	?___xxtofl+1,w
  4481  02BB  00B8               	movwf	___flsub@a+1
  4482  02BC  0829               	movf	?___xxtofl,w
  4483  02BD  00B7               	movwf	___flsub@a
  4484  02BE  1683               	bsf	3,5	;RP0=1, select bank1
  4485  02BF  1303               	bcf	3,6	;RP1=0, select bank1
  4486  02C0  0850               	movf	(ADC_convert@a+3)^(0+128),w
  4487  02C1  1283               	bcf	3,5	;RP0=0, select bank0
  4488  02C2  1303               	bcf	3,6	;RP1=0, select bank0
  4489  02C3  00BE               	movwf	___flsub@b+3
  4490  02C4  1683               	bsf	3,5	;RP0=1, select bank1
  4491  02C5  1303               	bcf	3,6	;RP1=0, select bank1
  4492  02C6  084F               	movf	(ADC_convert@a+2)^(0+128),w
  4493  02C7  1283               	bcf	3,5	;RP0=0, select bank0
  4494  02C8  1303               	bcf	3,6	;RP1=0, select bank0
  4495  02C9  00BD               	movwf	___flsub@b+2
  4496  02CA  1683               	bsf	3,5	;RP0=1, select bank1
  4497  02CB  1303               	bcf	3,6	;RP1=0, select bank1
  4498  02CC  084E               	movf	(ADC_convert@a+1)^(0+128),w
  4499  02CD  1283               	bcf	3,5	;RP0=0, select bank0
  4500  02CE  1303               	bcf	3,6	;RP1=0, select bank0
  4501  02CF  00BC               	movwf	___flsub@b+1
  4502  02D0  1683               	bsf	3,5	;RP0=1, select bank1
  4503  02D1  1303               	bcf	3,6	;RP1=0, select bank1
  4504  02D2  084D               	movf	ADC_convert@a^(0+128),w
  4505  02D3  1283               	bcf	3,5	;RP0=0, select bank0
  4506  02D4  1303               	bcf	3,6	;RP1=0, select bank0
  4507  02D5  00BB               	movwf	___flsub@b
  4508  02D6  160A  118A  22CF  120A  118A  	fcall	___flsub
  4509  02DB  1283               	bcf	3,5	;RP0=0, select bank0
  4510  02DC  1303               	bcf	3,6	;RP1=0, select bank0
  4511  02DD  083A               	movf	?___flsub+3,w
  4512  02DE  00D8               	movwf	___flmul@a+3
  4513  02DF  0839               	movf	?___flsub+2,w
  4514  02E0  00D7               	movwf	___flmul@a+2
  4515  02E1  0838               	movf	?___flsub+1,w
  4516  02E2  00D6               	movwf	___flmul@a+1
  4517  02E3  0837               	movf	?___flsub,w
  4518  02E4  00D5               	movwf	___flmul@a
  4519  02E5  120A  118A  2480  120A  118A  	fcall	___flmul
  4520  02EA  1283               	bcf	3,5	;RP0=0, select bank0
  4521  02EB  1303               	bcf	3,6	;RP1=0, select bank0
  4522  02EC  0854               	movf	?___flmul+3,w
  4523  02ED  1683               	bsf	3,5	;RP0=1, select bank1
  4524  02EE  1303               	bcf	3,6	;RP1=0, select bank1
  4525  02EF  00DB               	movwf	(ADC_convert@x+3)^(0+128)
  4526  02F0  1283               	bcf	3,5	;RP0=0, select bank0
  4527  02F1  1303               	bcf	3,6	;RP1=0, select bank0
  4528  02F2  0853               	movf	?___flmul+2,w
  4529  02F3  1683               	bsf	3,5	;RP0=1, select bank1
  4530  02F4  1303               	bcf	3,6	;RP1=0, select bank1
  4531  02F5  00DA               	movwf	(ADC_convert@x+2)^(0+128)
  4532  02F6  1283               	bcf	3,5	;RP0=0, select bank0
  4533  02F7  1303               	bcf	3,6	;RP1=0, select bank0
  4534  02F8  0852               	movf	?___flmul+1,w
  4535  02F9  1683               	bsf	3,5	;RP0=1, select bank1
  4536  02FA  1303               	bcf	3,6	;RP1=0, select bank1
  4537  02FB  00D9               	movwf	(ADC_convert@x+1)^(0+128)
  4538  02FC  1283               	bcf	3,5	;RP0=0, select bank0
  4539  02FD  1303               	bcf	3,6	;RP1=0, select bank0
  4540  02FE  0851               	movf	?___flmul,w
  4541  02FF  1683               	bsf	3,5	;RP0=1, select bank1
  4542  0300  1303               	bcf	3,6	;RP1=0, select bank1
  4543  0301  00D8               	movwf	ADC_convert@x^(0+128)
  4544  0302                     l3417:
  4545                           
  4546                           ;P1_main_M.c: 208:     a=x;
  4547  0302  085B               	movf	(ADC_convert@x+3)^(0+128),w
  4548  0303  00D0               	movwf	(ADC_convert@a+3)^(0+128)
  4549  0304  085A               	movf	(ADC_convert@x+2)^(0+128),w
  4550  0305  00CF               	movwf	(ADC_convert@a+2)^(0+128)
  4551  0306  0859               	movf	(ADC_convert@x+1)^(0+128),w
  4552  0307  00CE               	movwf	(ADC_convert@a+1)^(0+128)
  4553  0308  0858               	movf	ADC_convert@x^(0+128),w
  4554  0309  00CD               	movwf	ADC_convert@a^(0+128)
  4555  030A                     l3419:
  4556  030A  0850               	movf	(ADC_convert@a+3)^(0+128),w
  4557  030B  00F5               	movwf	___fltol@f1+3
  4558  030C  084F               	movf	(ADC_convert@a+2)^(0+128),w
  4559  030D  00F4               	movwf	___fltol@f1+2
  4560  030E  084E               	movf	(ADC_convert@a+1)^(0+128),w
  4561  030F  00F3               	movwf	___fltol@f1+1
  4562  0310  084D               	movf	ADC_convert@a^(0+128),w
  4563  0311  00F2               	movwf	___fltol@f1
  4564  0312  120A  158A  2007  120A  118A  	fcall	___fltol
  4565  0317                     l3421:
  4566  0317                     l3423:
  4567                           
  4568                           ;P1_main_M.c: 211:     mu=1;
  4569  0317  3001               	movlw	1
  4570  0318  1683               	bsf	3,5	;RP0=1, select bank1
  4571  0319  1303               	bcf	3,6	;RP1=0, select bank1
  4572  031A  00E0               	movwf	ADC_convert@mu^(0+128)
  4573  031B  3000               	movlw	0
  4574  031C  00E1               	movwf	(ADC_convert@mu^(0+128)+1)
  4575  031D                     l3425:
  4576                           
  4577                           ;P1_main_M.c: 212:     character=place;
  4578  031D  0852               	movf	(ADC_convert@place+1)^(0+128),w
  4579  031E  00DF               	movwf	(ADC_convert@character+1)^(0+128)
  4580  031F  0851               	movf	ADC_convert@place^(0+128),w
  4581  0320  00DE               	movwf	ADC_convert@character^(0+128)
  4582                           
  4583                           ;P1_main_M.c: 214:     while(character!=0) {
  4584  0321  2C69               	goto	l3449
  4585  0322                     l3427:
  4586                           
  4587                           ;P1_main_M.c: 215:         if(character==1)mu=1;
  4588  0322  035E               	decf	ADC_convert@character^(0+128),w
  4589  0323  045F               	iorwf	(ADC_convert@character+1)^(0+128),w
  4590  0324  1D03               	btfss	3,2
  4591  0325  2B27               	goto	u4841
  4592  0326  2B28               	goto	u4840
  4593  0327                     u4841:
  4594  0327  2B2D               	goto	l3431
  4595  0328                     u4840:
  4596  0328                     l3429:
  4597  0328  3001               	movlw	1
  4598  0329  00E0               	movwf	ADC_convert@mu^(0+128)
  4599  032A  3000               	movlw	0
  4600  032B  00E1               	movwf	(ADC_convert@mu^(0+128)+1)
  4601  032C  2B6F               	goto	l3439
  4602  032D                     l3431:
  4603  032D  3002               	movlw	2
  4604  032E  00D5               	movwf	ADC_convert@j^(0+128)
  4605  032F  3000               	movlw	0
  4606  0330  00D6               	movwf	(ADC_convert@j^(0+128)+1)
  4607  0331  2B59               	goto	l3437
  4608  0332                     l3433:
  4609  0332  1683               	bsf	3,5	;RP0=1, select bank1
  4610  0333  1303               	bcf	3,6	;RP1=0, select bank1
  4611  0334  0861               	movf	(ADC_convert@mu+1)^(0+128),w
  4612  0335  1283               	bcf	3,5	;RP0=0, select bank0
  4613  0336  1303               	bcf	3,6	;RP1=0, select bank0
  4614  0337  00A6               	movwf	___wmul@multiplier+1
  4615  0338  1683               	bsf	3,5	;RP0=1, select bank1
  4616  0339  1303               	bcf	3,6	;RP1=0, select bank1
  4617  033A  0860               	movf	ADC_convert@mu^(0+128),w
  4618  033B  1283               	bcf	3,5	;RP0=0, select bank0
  4619  033C  1303               	bcf	3,6	;RP1=0, select bank0
  4620  033D  00A5               	movwf	___wmul@multiplier
  4621  033E  300A               	movlw	10
  4622  033F  00A7               	movwf	___wmul@multiplicand
  4623  0340  3000               	movlw	0
  4624  0341  00A8               	movwf	___wmul@multiplicand+1
  4625  0342  160A  118A  22F3  120A  118A  	fcall	___wmul
  4626  0347  1283               	bcf	3,5	;RP0=0, select bank0
  4627  0348  1303               	bcf	3,6	;RP1=0, select bank0
  4628  0349  0826               	movf	?___wmul+1,w
  4629  034A  1683               	bsf	3,5	;RP0=1, select bank1
  4630  034B  1303               	bcf	3,6	;RP1=0, select bank1
  4631  034C  00E1               	movwf	(ADC_convert@mu+1)^(0+128)
  4632  034D  1283               	bcf	3,5	;RP0=0, select bank0
  4633  034E  1303               	bcf	3,6	;RP1=0, select bank0
  4634  034F  0825               	movf	?___wmul,w
  4635  0350  1683               	bsf	3,5	;RP0=1, select bank1
  4636  0351  1303               	bcf	3,6	;RP1=0, select bank1
  4637  0352  00E0               	movwf	ADC_convert@mu^(0+128)
  4638  0353                     l3435:
  4639  0353  3001               	movlw	1
  4640  0354  07D5               	addwf	ADC_convert@j^(0+128),f
  4641  0355  1803               	skipnc
  4642  0356  0AD6               	incf	(ADC_convert@j+1)^(0+128),f
  4643  0357  3000               	movlw	0
  4644  0358  07D6               	addwf	(ADC_convert@j+1)^(0+128),f
  4645  0359                     l3437:
  4646  0359  085F               	movf	(ADC_convert@character+1)^(0+128),w
  4647  035A  3A80               	xorlw	128
  4648  035B  1283               	bcf	3,5	;RP0=0, select bank0
  4649  035C  1303               	bcf	3,6	;RP1=0, select bank0
  4650  035D  00EB               	movwf	??_ADC_convert
  4651  035E  1683               	bsf	3,5	;RP0=1, select bank1
  4652  035F  1303               	bcf	3,6	;RP1=0, select bank1
  4653  0360  0856               	movf	(ADC_convert@j+1)^(0+128),w
  4654  0361  3A80               	xorlw	128
  4655  0362  1283               	bcf	3,5	;RP0=0, select bank0
  4656  0363  1303               	bcf	3,6	;RP1=0, select bank0
  4657  0364  026B               	subwf	??_ADC_convert,w
  4658  0365  1D03               	skipz
  4659  0366  2B6B               	goto	u4855
  4660  0367  1683               	bsf	3,5	;RP0=1, select bank1
  4661  0368  1303               	bcf	3,6	;RP1=0, select bank1
  4662  0369  0855               	movf	ADC_convert@j^(0+128),w
  4663  036A  025E               	subwf	ADC_convert@character^(0+128),w
  4664  036B                     u4855:
  4665  036B  1803               	skipnc
  4666  036C  2B6E               	goto	u4851
  4667  036D  2B6F               	goto	u4850
  4668  036E                     u4851:
  4669  036E  2B32               	goto	l3433
  4670  036F                     u4850:
  4671  036F                     l3439:
  4672                           
  4673                           ;P1_main_M.c: 218:         x=a/mu;
  4674  036F  1683               	bsf	3,5	;RP0=1, select bank1
  4675  0370  1303               	bcf	3,6	;RP1=0, select bank1
  4676  0371  0860               	movf	ADC_convert@mu^(0+128),w
  4677  0372  1283               	bcf	3,5	;RP0=0, select bank0
  4678  0373  1303               	bcf	3,6	;RP1=0, select bank0
  4679  0374  00A9               	movwf	___xxtofl@val
  4680  0375  1683               	bsf	3,5	;RP0=1, select bank1
  4681  0376  1303               	bcf	3,6	;RP1=0, select bank1
  4682  0377  0861               	movf	(ADC_convert@mu+1)^(0+128),w
  4683  0378  1283               	bcf	3,5	;RP0=0, select bank0
  4684  0379  1303               	bcf	3,6	;RP1=0, select bank0
  4685  037A  00AA               	movwf	___xxtofl@val+1
  4686  037B  3000               	movlw	0
  4687  037C  1BAA               	btfsc	___xxtofl@val+1,7
  4688  037D  30FF               	movlw	255
  4689  037E  00AB               	movwf	___xxtofl@val+2
  4690  037F  00AC               	movwf	___xxtofl@val+3
  4691  0380  3001               	movlw	1
  4692  0381  160A  118A  2744  120A  118A  	fcall	___xxtofl
  4693  0386  1283               	bcf	3,5	;RP0=0, select bank0
  4694  0387  1303               	bcf	3,6	;RP1=0, select bank0
  4695  0388  082C               	movf	?___xxtofl+3,w
  4696  0389  00BA               	movwf	___fldiv@a+3
  4697  038A  082B               	movf	?___xxtofl+2,w
  4698  038B  00B9               	movwf	___fldiv@a+2
  4699  038C  082A               	movf	?___xxtofl+1,w
  4700  038D  00B8               	movwf	___fldiv@a+1
  4701  038E  0829               	movf	?___xxtofl,w
  4702  038F  00B7               	movwf	___fldiv@a
  4703  0390  1683               	bsf	3,5	;RP0=1, select bank1
  4704  0391  1303               	bcf	3,6	;RP1=0, select bank1
  4705  0392  0850               	movf	(ADC_convert@a+3)^(0+128),w
  4706  0393  1283               	bcf	3,5	;RP0=0, select bank0
  4707  0394  1303               	bcf	3,6	;RP1=0, select bank0
  4708  0395  00BE               	movwf	___fldiv@b+3
  4709  0396  1683               	bsf	3,5	;RP0=1, select bank1
  4710  0397  1303               	bcf	3,6	;RP1=0, select bank1
  4711  0398  084F               	movf	(ADC_convert@a+2)^(0+128),w
  4712  0399  1283               	bcf	3,5	;RP0=0, select bank0
  4713  039A  1303               	bcf	3,6	;RP1=0, select bank0
  4714  039B  00BD               	movwf	___fldiv@b+2
  4715  039C  1683               	bsf	3,5	;RP0=1, select bank1
  4716  039D  1303               	bcf	3,6	;RP1=0, select bank1
  4717  039E  084E               	movf	(ADC_convert@a+1)^(0+128),w
  4718  039F  1283               	bcf	3,5	;RP0=0, select bank0
  4719  03A0  1303               	bcf	3,6	;RP1=0, select bank0
  4720  03A1  00BC               	movwf	___fldiv@b+1
  4721  03A2  1683               	bsf	3,5	;RP0=1, select bank1
  4722  03A3  1303               	bcf	3,6	;RP1=0, select bank1
  4723  03A4  084D               	movf	ADC_convert@a^(0+128),w
  4724  03A5  1283               	bcf	3,5	;RP0=0, select bank0
  4725  03A6  1303               	bcf	3,6	;RP1=0, select bank0
  4726  03A7  00BB               	movwf	___fldiv@b
  4727  03A8  120A  158A  2083  120A  118A  	fcall	___fldiv
  4728  03AD  1283               	bcf	3,5	;RP0=0, select bank0
  4729  03AE  1303               	bcf	3,6	;RP1=0, select bank0
  4730  03AF  083A               	movf	?___fldiv+3,w
  4731  03B0  1683               	bsf	3,5	;RP0=1, select bank1
  4732  03B1  1303               	bcf	3,6	;RP1=0, select bank1
  4733  03B2  00DB               	movwf	(ADC_convert@x+3)^(0+128)
  4734  03B3  1283               	bcf	3,5	;RP0=0, select bank0
  4735  03B4  1303               	bcf	3,6	;RP1=0, select bank0
  4736  03B5  0839               	movf	?___fldiv+2,w
  4737  03B6  1683               	bsf	3,5	;RP0=1, select bank1
  4738  03B7  1303               	bcf	3,6	;RP1=0, select bank1
  4739  03B8  00DA               	movwf	(ADC_convert@x+2)^(0+128)
  4740  03B9  1283               	bcf	3,5	;RP0=0, select bank0
  4741  03BA  1303               	bcf	3,6	;RP1=0, select bank0
  4742  03BB  0838               	movf	?___fldiv+1,w
  4743  03BC  1683               	bsf	3,5	;RP0=1, select bank1
  4744  03BD  1303               	bcf	3,6	;RP1=0, select bank1
  4745  03BE  00D9               	movwf	(ADC_convert@x+1)^(0+128)
  4746  03BF  1283               	bcf	3,5	;RP0=0, select bank0
  4747  03C0  1303               	bcf	3,6	;RP1=0, select bank0
  4748  03C1  0837               	movf	?___fldiv,w
  4749  03C2  1683               	bsf	3,5	;RP0=1, select bank1
  4750  03C3  1303               	bcf	3,6	;RP1=0, select bank1
  4751  03C4  00D8               	movwf	ADC_convert@x^(0+128)
  4752                           
  4753                           ;P1_main_M.c: 219:         a=a-((int)x*mu);
  4754  03C5  0861               	movf	(ADC_convert@mu+1)^(0+128),w
  4755  03C6  1283               	bcf	3,5	;RP0=0, select bank0
  4756  03C7  1303               	bcf	3,6	;RP1=0, select bank0
  4757  03C8  00A8               	movwf	___wmul@multiplicand+1
  4758  03C9  1683               	bsf	3,5	;RP0=1, select bank1
  4759  03CA  1303               	bcf	3,6	;RP1=0, select bank1
  4760  03CB  0860               	movf	ADC_convert@mu^(0+128),w
  4761  03CC  1283               	bcf	3,5	;RP0=0, select bank0
  4762  03CD  1303               	bcf	3,6	;RP1=0, select bank0
  4763  03CE  00A7               	movwf	___wmul@multiplicand
  4764  03CF  1683               	bsf	3,5	;RP0=1, select bank1
  4765  03D0  1303               	bcf	3,6	;RP1=0, select bank1
  4766  03D1  085B               	movf	(ADC_convert@x+3)^(0+128),w
  4767  03D2  00F5               	movwf	___fltol@f1+3
  4768  03D3  085A               	movf	(ADC_convert@x+2)^(0+128),w
  4769  03D4  00F4               	movwf	___fltol@f1+2
  4770  03D5  0859               	movf	(ADC_convert@x+1)^(0+128),w
  4771  03D6  00F3               	movwf	___fltol@f1+1
  4772  03D7  0858               	movf	ADC_convert@x^(0+128),w
  4773  03D8  00F2               	movwf	___fltol@f1
  4774  03D9  120A  158A  2007  120A  118A  	fcall	___fltol
  4775  03DE  0873               	movf	?___fltol+1,w
  4776  03DF  1283               	bcf	3,5	;RP0=0, select bank0
  4777  03E0  1303               	bcf	3,6	;RP1=0, select bank0
  4778  03E1  00A6               	movwf	___wmul@multiplier+1
  4779  03E2  0872               	movf	?___fltol,w
  4780  03E3  00A5               	movwf	___wmul@multiplier
  4781  03E4  160A  118A  22F3  120A  118A  	fcall	___wmul
  4782  03E9  1283               	bcf	3,5	;RP0=0, select bank0
  4783  03EA  1303               	bcf	3,6	;RP1=0, select bank0
  4784  03EB  0825               	movf	?___wmul,w
  4785  03EC  00A9               	movwf	___xxtofl@val
  4786  03ED  0826               	movf	?___wmul+1,w
  4787  03EE  00AA               	movwf	___xxtofl@val+1
  4788  03EF  3000               	movlw	0
  4789  03F0  1BAA               	btfsc	___xxtofl@val+1,7
  4790  03F1  30FF               	movlw	255
  4791  03F2  00AB               	movwf	___xxtofl@val+2
  4792  03F3  00AC               	movwf	___xxtofl@val+3
  4793  03F4  3001               	movlw	1
  4794  03F5  160A  118A  2744  120A  118A  	fcall	___xxtofl
  4795  03FA  1283               	bcf	3,5	;RP0=0, select bank0
  4796  03FB  1303               	bcf	3,6	;RP1=0, select bank0
  4797  03FC  082C               	movf	?___xxtofl+3,w
  4798  03FD  00BA               	movwf	___flsub@a+3
  4799  03FE  082B               	movf	?___xxtofl+2,w
  4800  03FF  00B9               	movwf	___flsub@a+2
  4801  0400  082A               	movf	?___xxtofl+1,w
  4802  0401  00B8               	movwf	___flsub@a+1
  4803  0402  0829               	movf	?___xxtofl,w
  4804  0403  00B7               	movwf	___flsub@a
  4805  0404  1683               	bsf	3,5	;RP0=1, select bank1
  4806  0405  1303               	bcf	3,6	;RP1=0, select bank1
  4807  0406  0850               	movf	(ADC_convert@a+3)^(0+128),w
  4808  0407  1283               	bcf	3,5	;RP0=0, select bank0
  4809  0408  1303               	bcf	3,6	;RP1=0, select bank0
  4810  0409  00BE               	movwf	___flsub@b+3
  4811  040A  1683               	bsf	3,5	;RP0=1, select bank1
  4812  040B  1303               	bcf	3,6	;RP1=0, select bank1
  4813  040C  084F               	movf	(ADC_convert@a+2)^(0+128),w
  4814  040D  1283               	bcf	3,5	;RP0=0, select bank0
  4815  040E  1303               	bcf	3,6	;RP1=0, select bank0
  4816  040F  00BD               	movwf	___flsub@b+2
  4817  0410  1683               	bsf	3,5	;RP0=1, select bank1
  4818  0411  1303               	bcf	3,6	;RP1=0, select bank1
  4819  0412  084E               	movf	(ADC_convert@a+1)^(0+128),w
  4820  0413  1283               	bcf	3,5	;RP0=0, select bank0
  4821  0414  1303               	bcf	3,6	;RP1=0, select bank0
  4822  0415  00BC               	movwf	___flsub@b+1
  4823  0416  1683               	bsf	3,5	;RP0=1, select bank1
  4824  0417  1303               	bcf	3,6	;RP1=0, select bank1
  4825  0418  084D               	movf	ADC_convert@a^(0+128),w
  4826  0419  1283               	bcf	3,5	;RP0=0, select bank0
  4827  041A  1303               	bcf	3,6	;RP1=0, select bank0
  4828  041B  00BB               	movwf	___flsub@b
  4829  041C  160A  118A  22CF  120A  118A  	fcall	___flsub
  4830  0421  1283               	bcf	3,5	;RP0=0, select bank0
  4831  0422  1303               	bcf	3,6	;RP1=0, select bank0
  4832  0423  083A               	movf	?___flsub+3,w
  4833  0424  1683               	bsf	3,5	;RP0=1, select bank1
  4834  0425  1303               	bcf	3,6	;RP1=0, select bank1
  4835  0426  00D0               	movwf	(ADC_convert@a+3)^(0+128)
  4836  0427  1283               	bcf	3,5	;RP0=0, select bank0
  4837  0428  1303               	bcf	3,6	;RP1=0, select bank0
  4838  0429  0839               	movf	?___flsub+2,w
  4839  042A  1683               	bsf	3,5	;RP0=1, select bank1
  4840  042B  1303               	bcf	3,6	;RP1=0, select bank1
  4841  042C  00CF               	movwf	(ADC_convert@a+2)^(0+128)
  4842  042D  1283               	bcf	3,5	;RP0=0, select bank0
  4843  042E  1303               	bcf	3,6	;RP1=0, select bank0
  4844  042F  0838               	movf	?___flsub+1,w
  4845  0430  1683               	bsf	3,5	;RP0=1, select bank1
  4846  0431  1303               	bcf	3,6	;RP1=0, select bank1
  4847  0432  00CE               	movwf	(ADC_convert@a+1)^(0+128)
  4848  0433  1283               	bcf	3,5	;RP0=0, select bank0
  4849  0434  1303               	bcf	3,6	;RP1=0, select bank0
  4850  0435  0837               	movf	?___flsub,w
  4851  0436  1683               	bsf	3,5	;RP0=1, select bank1
  4852  0437  1303               	bcf	3,6	;RP1=0, select bank1
  4853  0438  00CD               	movwf	ADC_convert@a^(0+128)
  4854  0439                     l3441:
  4855                           
  4856                           ;P1_main_M.c: 220:         data[i]=0x30+((int)x);
  4857  0439  085B               	movf	(ADC_convert@x+3)^(0+128),w
  4858  043A  00F5               	movwf	___fltol@f1+3
  4859  043B  085A               	movf	(ADC_convert@x+2)^(0+128),w
  4860  043C  00F4               	movwf	___fltol@f1+2
  4861  043D  0859               	movf	(ADC_convert@x+1)^(0+128),w
  4862  043E  00F3               	movwf	___fltol@f1+1
  4863  043F  0858               	movf	ADC_convert@x^(0+128),w
  4864  0440  00F2               	movwf	___fltol@f1
  4865  0441  120A  158A  2007  120A  118A  	fcall	___fltol
  4866  0446  0872               	movf	?___fltol,w
  4867  0447  3E30               	addlw	48
  4868  0448  1283               	bcf	3,5	;RP0=0, select bank0
  4869  0449  1303               	bcf	3,6	;RP1=0, select bank0
  4870  044A  00EB               	movwf	??_ADC_convert
  4871  044B  1683               	bsf	3,5	;RP0=1, select bank1
  4872  044C  1303               	bcf	3,6	;RP1=0, select bank1
  4873  044D  085C               	movf	ADC_convert@i^(0+128),w
  4874  044E  0757               	addwf	ADC_convert@data^(0+128),w
  4875  044F  1283               	bcf	3,5	;RP0=0, select bank0
  4876  0450  1303               	bcf	3,6	;RP1=0, select bank0
  4877  0451  00EC               	movwf	??_ADC_convert+1
  4878  0452  086C               	movf	??_ADC_convert+1,w
  4879  0453  0084               	movwf	4
  4880  0454  086B               	movf	??_ADC_convert,w
  4881  0455  1383               	bcf	3,7	;select IRP bank0
  4882  0456  0080               	movwf	0
  4883  0457                     l3443:
  4884                           
  4885                           ;P1_main_M.c: 221:         i++;
  4886  0457  3001               	movlw	1
  4887  0458  1683               	bsf	3,5	;RP0=1, select bank1
  4888  0459  1303               	bcf	3,6	;RP1=0, select bank1
  4889  045A  07DC               	addwf	ADC_convert@i^(0+128),f
  4890  045B  1803               	skipnc
  4891  045C  0ADD               	incf	(ADC_convert@i+1)^(0+128),f
  4892  045D  3000               	movlw	0
  4893  045E  07DD               	addwf	(ADC_convert@i+1)^(0+128),f
  4894  045F                     l3445:
  4895                           
  4896                           ;P1_main_M.c: 222:         character--;
  4897  045F  30FF               	movlw	255
  4898  0460  07DE               	addwf	ADC_convert@character^(0+128),f
  4899  0461  1803               	skipnc
  4900  0462  0ADF               	incf	(ADC_convert@character+1)^(0+128),f
  4901  0463  30FF               	movlw	255
  4902  0464  07DF               	addwf	(ADC_convert@character+1)^(0+128),f
  4903  0465                     l3447:
  4904                           
  4905                           ;P1_main_M.c: 223:         mu=1;
  4906  0465  3001               	movlw	1
  4907  0466  00E0               	movwf	ADC_convert@mu^(0+128)
  4908  0467  3000               	movlw	0
  4909  0468  00E1               	movwf	(ADC_convert@mu^(0+128)+1)
  4910  0469                     l3449:
  4911                           
  4912                           ;P1_main_M.c: 214:     while(character!=0) {
  4913  0469  085E               	movf	ADC_convert@character^(0+128),w
  4914  046A  045F               	iorwf	(ADC_convert@character+1)^(0+128),w
  4915  046B  1D03               	btfss	3,2
  4916  046C  2C6E               	goto	u4861
  4917  046D  2C6F               	goto	u4860
  4918  046E                     u4861:
  4919  046E  2B22               	goto	l3427
  4920  046F                     u4860:
  4921  046F                     l3451:
  4922                           
  4923                           ;P1_main_M.c: 226:     data[i]='\n';
  4924  046F  300A               	movlw	10
  4925  0470  1283               	bcf	3,5	;RP0=0, select bank0
  4926  0471  1303               	bcf	3,6	;RP1=0, select bank0
  4927  0472  00EB               	movwf	??_ADC_convert
  4928  0473  1683               	bsf	3,5	;RP0=1, select bank1
  4929  0474  1303               	bcf	3,6	;RP1=0, select bank1
  4930  0475  085C               	movf	ADC_convert@i^(0+128),w
  4931  0476  0757               	addwf	ADC_convert@data^(0+128),w
  4932  0477  1283               	bcf	3,5	;RP0=0, select bank0
  4933  0478  1303               	bcf	3,6	;RP1=0, select bank0
  4934  0479  00EC               	movwf	??_ADC_convert+1
  4935  047A  086C               	movf	??_ADC_convert+1,w
  4936  047B  0084               	movwf	4
  4937  047C  086B               	movf	??_ADC_convert,w
  4938  047D  1383               	bcf	3,7	;select IRP bank0
  4939  047E  0080               	movwf	0
  4940  047F                     l128:
  4941  047F  0008               	return
  4942  0480                     __end_of_ADC_convert:
  4943                           
  4944                           	psect	text19
  4945  1744                     __ptext19:	
  4946 ;; *************** function ___xxtofl *****************
  4947 ;; Defined at:
  4948 ;;		line 10 in file "D:\PrograMicros\pic\sources\c90\common\xxtofl.c"
  4949 ;; Parameters:    Size  Location     Type
  4950 ;;  sign            1    wreg     unsigned char 
  4951 ;;  val             4    9[BANK0 ] long 
  4952 ;; Auto vars:     Size  Location     Type
  4953 ;;  sign            1   17[BANK0 ] unsigned char 
  4954 ;;  arg             4   19[BANK0 ] unsigned long 
  4955 ;;  exp             1   18[BANK0 ] unsigned char 
  4956 ;; Return value:  Size  Location     Type
  4957 ;;                  4    9[BANK0 ] unsigned char 
  4958 ;; Registers used:
  4959 ;;		wreg, status,2, status,0
  4960 ;; Tracked objects:
  4961 ;;		On entry : 0/0
  4962 ;;		On exit  : 0/0
  4963 ;;		Unchanged: 0/0
  4964 ;; Data sizes:     COMMON   BANK0   BANK1   BANK3   BANK2
  4965 ;;      Params:         0       4       0       0       0
  4966 ;;      Locals:         0       6       0       0       0
  4967 ;;      Temps:          0       4       0       0       0
  4968 ;;      Totals:         0      14       0       0       0
  4969 ;;Total ram usage:       14 bytes
  4970 ;; Hardware stack levels used:    1
  4971 ;; Hardware stack levels required when called:    1
  4972 ;; This function calls:
  4973 ;;		Nothing
  4974 ;; This function is called by:
  4975 ;;		_main
  4976 ;;		_ADC_convert
  4977 ;; This function uses a non-reentrant model
  4978 ;;
  4979                           
  4980                           
  4981                           ;psect for function ___xxtofl
  4982  1744                     ___xxtofl:
  4983                           
  4984                           ;incstack = 0
  4985                           ; Regs used in ___xxtofl: [wreg+status,2+status,0]
  4986                           ;___xxtofl@sign stored from wreg
  4987  1744  1283               	bcf	3,5	;RP0=0, select bank0
  4988  1745  1303               	bcf	3,6	;RP1=0, select bank0
  4989  1746  00B1               	movwf	___xxtofl@sign
  4990  1747                     l2667:
  4991  1747  0831               	movf	___xxtofl@sign,w
  4992  1748  1903               	btfsc	3,2
  4993  1749  2F4B               	goto	u3721
  4994  174A  2F4C               	goto	u3720
  4995  174B                     u3721:
  4996  174B  2F60               	goto	l2673
  4997  174C                     u3720:
  4998  174C                     l2669:
  4999  174C  1FAC               	btfss	___xxtofl@val+3,7
  5000  174D  2F4F               	goto	u3731
  5001  174E  2F50               	goto	u3730
  5002  174F                     u3731:
  5003  174F  2F60               	goto	l2673
  5004  1750                     u3730:
  5005  1750                     l2671:
  5006  1750  0929               	comf	___xxtofl@val,w
  5007  1751  00B3               	movwf	___xxtofl@arg
  5008  1752  092A               	comf	___xxtofl@val+1,w
  5009  1753  00B4               	movwf	___xxtofl@arg+1
  5010  1754  092B               	comf	___xxtofl@val+2,w
  5011  1755  00B5               	movwf	___xxtofl@arg+2
  5012  1756  092C               	comf	___xxtofl@val+3,w
  5013  1757  00B6               	movwf	___xxtofl@arg+3
  5014  1758  0AB3               	incf	___xxtofl@arg,f
  5015  1759  1903               	skipnz
  5016  175A  0AB4               	incf	___xxtofl@arg+1,f
  5017  175B  1903               	skipnz
  5018  175C  0AB5               	incf	___xxtofl@arg+2,f
  5019  175D  1903               	skipnz
  5020  175E  0AB6               	incf	___xxtofl@arg+3,f
  5021  175F  2F68               	goto	l760
  5022  1760                     l2673:
  5023  1760  082C               	movf	___xxtofl@val+3,w
  5024  1761  00B6               	movwf	___xxtofl@arg+3
  5025  1762  082B               	movf	___xxtofl@val+2,w
  5026  1763  00B5               	movwf	___xxtofl@arg+2
  5027  1764  082A               	movf	___xxtofl@val+1,w
  5028  1765  00B4               	movwf	___xxtofl@arg+1
  5029  1766  0829               	movf	___xxtofl@val,w
  5030  1767  00B3               	movwf	___xxtofl@arg
  5031  1768                     l760:
  5032  1768  082C               	movf	___xxtofl@val+3,w
  5033  1769  042B               	iorwf	___xxtofl@val+2,w
  5034  176A  042A               	iorwf	___xxtofl@val+1,w
  5035  176B  0429               	iorwf	___xxtofl@val,w
  5036  176C  1D03               	skipz
  5037  176D  2F6F               	goto	u3741
  5038  176E  2F70               	goto	u3740
  5039  176F                     u3741:
  5040  176F  2F79               	goto	l2679
  5041  1770                     u3740:
  5042  1770                     l2675:
  5043  1770  3000               	movlw	0
  5044  1771  00AC               	movwf	?___xxtofl+3
  5045  1772  3000               	movlw	0
  5046  1773  00AB               	movwf	?___xxtofl+2
  5047  1774  3000               	movlw	0
  5048  1775  00AA               	movwf	?___xxtofl+1
  5049  1776  3000               	movlw	0
  5050  1777  00A9               	movwf	?___xxtofl
  5051  1778  2FFF               	goto	l762
  5052  1779                     l2679:
  5053  1779  3096               	movlw	150
  5054  177A  00AD               	movwf	??___xxtofl
  5055  177B  082D               	movf	??___xxtofl,w
  5056  177C  00B2               	movwf	___xxtofl@exp
  5057  177D  2F8B               	goto	l2683
  5058  177E                     l2681:
  5059  177E  3001               	movlw	1
  5060  177F  00AD               	movwf	??___xxtofl
  5061  1780  082D               	movf	??___xxtofl,w
  5062  1781  07B2               	addwf	___xxtofl@exp,f
  5063  1782  3001               	movlw	1
  5064  1783                     u3755:
  5065  1783  1003               	clrc
  5066  1784  0CB6               	rrf	___xxtofl@arg+3,f
  5067  1785  0CB5               	rrf	___xxtofl@arg+2,f
  5068  1786  0CB4               	rrf	___xxtofl@arg+1,f
  5069  1787  0CB3               	rrf	___xxtofl@arg,f
  5070  1788  3EFF               	addlw	-1
  5071  1789  1D03               	skipz
  5072  178A  2F83               	goto	u3755
  5073  178B                     l2683:
  5074  178B  30FE               	movlw	254
  5075  178C  0536               	andwf	___xxtofl@arg+3,w
  5076  178D  1D03               	btfss	3,2
  5077  178E  2F90               	goto	u3761
  5078  178F  2F91               	goto	u3760
  5079  1790                     u3761:
  5080  1790  2F7E               	goto	l2681
  5081  1791                     u3760:
  5082  1791  2FAD               	goto	l766
  5083  1792                     l2685:
  5084  1792  3001               	movlw	1
  5085  1793  00AD               	movwf	??___xxtofl
  5086  1794  082D               	movf	??___xxtofl,w
  5087  1795  07B2               	addwf	___xxtofl@exp,f
  5088  1796                     l2687:
  5089  1796  3001               	movlw	1
  5090  1797  07B3               	addwf	___xxtofl@arg,f
  5091  1798  3000               	movlw	0
  5092  1799  1803               	skipnc
  5093  179A  3001               	movlw	1
  5094  179B  07B4               	addwf	___xxtofl@arg+1,f
  5095  179C  3000               	movlw	0
  5096  179D  1803               	skipnc
  5097  179E  3001               	movlw	1
  5098  179F  07B5               	addwf	___xxtofl@arg+2,f
  5099  17A0  3000               	movlw	0
  5100  17A1  1803               	skipnc
  5101  17A2  3001               	movlw	1
  5102  17A3  07B6               	addwf	___xxtofl@arg+3,f
  5103  17A4                     l2689:
  5104  17A4  3001               	movlw	1
  5105  17A5                     u3775:
  5106  17A5  1003               	clrc
  5107  17A6  0CB6               	rrf	___xxtofl@arg+3,f
  5108  17A7  0CB5               	rrf	___xxtofl@arg+2,f
  5109  17A8  0CB4               	rrf	___xxtofl@arg+1,f
  5110  17A9  0CB3               	rrf	___xxtofl@arg,f
  5111  17AA  3EFF               	addlw	-1
  5112  17AB  1D03               	skipz
  5113  17AC  2FA5               	goto	u3775
  5114  17AD                     l766:
  5115  17AD  30FF               	movlw	255
  5116  17AE  0536               	andwf	___xxtofl@arg+3,w
  5117  17AF  1D03               	btfss	3,2
  5118  17B0  2FB2               	goto	u3781
  5119  17B1  2FB3               	goto	u3780
  5120  17B2                     u3781:
  5121  17B2  2F92               	goto	l2685
  5122  17B3                     u3780:
  5123  17B3  2FBF               	goto	l2693
  5124  17B4                     l2691:
  5125  17B4  3001               	movlw	1
  5126  17B5  02B2               	subwf	___xxtofl@exp,f
  5127  17B6  3001               	movlw	1
  5128  17B7  00AD               	movwf	??___xxtofl
  5129  17B8                     u3795:
  5130  17B8  1003               	clrc
  5131  17B9  0DB3               	rlf	___xxtofl@arg,f
  5132  17BA  0DB4               	rlf	___xxtofl@arg+1,f
  5133  17BB  0DB5               	rlf	___xxtofl@arg+2,f
  5134  17BC  0DB6               	rlf	___xxtofl@arg+3,f
  5135  17BD  0BAD               	decfsz	??___xxtofl,f
  5136  17BE  2FB8               	goto	u3795
  5137  17BF                     l2693:
  5138  17BF  1BB5               	btfsc	___xxtofl@arg+2,7
  5139  17C0  2FC2               	goto	u3801
  5140  17C1  2FC3               	goto	u3800
  5141  17C2                     u3801:
  5142  17C2  2FC9               	goto	l773
  5143  17C3                     u3800:
  5144  17C3                     l2695:
  5145  17C3  3002               	movlw	2
  5146  17C4  0232               	subwf	___xxtofl@exp,w
  5147  17C5  1803               	skipnc
  5148  17C6  2FC8               	goto	u3811
  5149  17C7  2FC9               	goto	u3810
  5150  17C8                     u3811:
  5151  17C8  2FB4               	goto	l2691
  5152  17C9                     u3810:
  5153  17C9                     l773:
  5154  17C9  1832               	btfsc	___xxtofl@exp,0
  5155  17CA  2FCC               	goto	u3821
  5156  17CB  2FCD               	goto	u3820
  5157  17CC                     u3821:
  5158  17CC  2FD5               	goto	l774
  5159  17CD                     u3820:
  5160  17CD                     l2697:
  5161  17CD  30FF               	movlw	255
  5162  17CE  05B3               	andwf	___xxtofl@arg,f
  5163  17CF  30FF               	movlw	255
  5164  17D0  05B4               	andwf	___xxtofl@arg+1,f
  5165  17D1  307F               	movlw	127
  5166  17D2  05B5               	andwf	___xxtofl@arg+2,f
  5167  17D3  30FF               	movlw	255
  5168  17D4  05B6               	andwf	___xxtofl@arg+3,f
  5169  17D5                     l774:
  5170  17D5  1003               	clrc
  5171  17D6  0CB2               	rrf	___xxtofl@exp,f
  5172  17D7                     l2699:
  5173  17D7  0832               	movf	___xxtofl@exp,w
  5174  17D8  00AD               	movwf	??___xxtofl
  5175  17D9  01AE               	clrf	??___xxtofl+1
  5176  17DA  01AF               	clrf	??___xxtofl+2
  5177  17DB  01B0               	clrf	??___xxtofl+3
  5178  17DC  3018               	movlw	24
  5179  17DD                     u3835:
  5180  17DD  1003               	clrc
  5181  17DE  0DAD               	rlf	??___xxtofl,f
  5182  17DF  0DAE               	rlf	??___xxtofl+1,f
  5183  17E0  0DAF               	rlf	??___xxtofl+2,f
  5184  17E1  0DB0               	rlf	??___xxtofl+3,f
  5185  17E2                     u3830:
  5186  17E2  3EFF               	addlw	-1
  5187  17E3  1D03               	skipz
  5188  17E4  2FDD               	goto	u3835
  5189  17E5  082D               	movf	??___xxtofl,w
  5190  17E6  04B3               	iorwf	___xxtofl@arg,f
  5191  17E7  082E               	movf	??___xxtofl+1,w
  5192  17E8  04B4               	iorwf	___xxtofl@arg+1,f
  5193  17E9  082F               	movf	??___xxtofl+2,w
  5194  17EA  04B5               	iorwf	___xxtofl@arg+2,f
  5195  17EB  0830               	movf	??___xxtofl+3,w
  5196  17EC  04B6               	iorwf	___xxtofl@arg+3,f
  5197  17ED                     l2701:
  5198  17ED  0831               	movf	___xxtofl@sign,w
  5199  17EE  1903               	btfsc	3,2
  5200  17EF  2FF1               	goto	u3841
  5201  17F0  2FF2               	goto	u3840
  5202  17F1                     u3841:
  5203  17F1  2FF7               	goto	l2707
  5204  17F2                     u3840:
  5205  17F2                     l2703:
  5206  17F2  1FAC               	btfss	___xxtofl@val+3,7
  5207  17F3  2FF5               	goto	u3851
  5208  17F4  2FF6               	goto	u3850
  5209  17F5                     u3851:
  5210  17F5  2FF7               	goto	l2707
  5211  17F6                     u3850:
  5212  17F6                     l2705:
  5213  17F6  17B6               	bsf	___xxtofl@arg+3,7
  5214  17F7                     l2707:
  5215  17F7  0836               	movf	___xxtofl@arg+3,w
  5216  17F8  00AC               	movwf	?___xxtofl+3
  5217  17F9  0835               	movf	___xxtofl@arg+2,w
  5218  17FA  00AB               	movwf	?___xxtofl+2
  5219  17FB  0834               	movf	___xxtofl@arg+1,w
  5220  17FC  00AA               	movwf	?___xxtofl+1
  5221  17FD  0833               	movf	___xxtofl@arg,w
  5222  17FE  00A9               	movwf	?___xxtofl
  5223  17FF                     l762:
  5224  17FF  0008               	return
  5225  1800                     __end_of___xxtofl:
  5226                           
  5227                           	psect	text20
  5228  12F3                     __ptext20:	
  5229 ;; *************** function ___wmul *****************
  5230 ;; Defined at:
  5231 ;;		line 15 in file "D:\PrograMicros\pic\sources\c90\common\Umul16.c"
  5232 ;; Parameters:    Size  Location     Type
  5233 ;;  multiplier      2    5[BANK0 ] unsigned int 
  5234 ;;  multiplicand    2    7[BANK0 ] unsigned int 
  5235 ;; Auto vars:     Size  Location     Type
  5236 ;;  product         2    8[COMMON] unsigned int 
  5237 ;; Return value:  Size  Location     Type
  5238 ;;                  2    5[BANK0 ] unsigned int 
  5239 ;; Registers used:
  5240 ;;		wreg, status,2, status,0
  5241 ;; Tracked objects:
  5242 ;;		On entry : 0/0
  5243 ;;		On exit  : 0/0
  5244 ;;		Unchanged: 0/0
  5245 ;; Data sizes:     COMMON   BANK0   BANK1   BANK3   BANK2
  5246 ;;      Params:         0       4       0       0       0
  5247 ;;      Locals:         2       0       0       0       0
  5248 ;;      Temps:          0       0       0       0       0
  5249 ;;      Totals:         2       4       0       0       0
  5250 ;;Total ram usage:        6 bytes
  5251 ;; Hardware stack levels used:    1
  5252 ;; Hardware stack levels required when called:    1
  5253 ;; This function calls:
  5254 ;;		Nothing
  5255 ;; This function is called by:
  5256 ;;		_ADC_convert
  5257 ;; This function uses a non-reentrant model
  5258 ;;
  5259                           
  5260                           
  5261                           ;psect for function ___wmul
  5262  12F3                     ___wmul:
  5263  12F3                     l3065:	
  5264                           ;incstack = 0
  5265                           ; Regs used in ___wmul: [wreg+status,2+status,0]
  5266                           
  5267  12F3  01F8               	clrf	___wmul@product
  5268  12F4  01F9               	clrf	___wmul@product+1
  5269  12F5                     l3067:
  5270  12F5  1283               	bcf	3,5	;RP0=0, select bank0
  5271  12F6  1303               	bcf	3,6	;RP1=0, select bank0
  5272  12F7  1C25               	btfss	___wmul@multiplier,0
  5273  12F8  2AFA               	goto	u4141
  5274  12F9  2AFB               	goto	u4140
  5275  12FA                     u4141:
  5276  12FA  2B01               	goto	l327
  5277  12FB                     u4140:
  5278  12FB                     l3069:
  5279  12FB  0827               	movf	___wmul@multiplicand,w
  5280  12FC  07F8               	addwf	___wmul@product,f
  5281  12FD  1803               	skipnc
  5282  12FE  0AF9               	incf	___wmul@product+1,f
  5283  12FF  0828               	movf	___wmul@multiplicand+1,w
  5284  1300  07F9               	addwf	___wmul@product+1,f
  5285  1301                     l327:
  5286  1301  3001               	movlw	1
  5287  1302                     u4155:
  5288  1302  1003               	clrc
  5289  1303  0DA7               	rlf	___wmul@multiplicand,f
  5290  1304  0DA8               	rlf	___wmul@multiplicand+1,f
  5291  1305  3EFF               	addlw	-1
  5292  1306  1D03               	skipz
  5293  1307  2B02               	goto	u4155
  5294  1308                     l3071:
  5295  1308  3001               	movlw	1
  5296  1309                     u4165:
  5297  1309  1003               	clrc
  5298  130A  0CA6               	rrf	___wmul@multiplier+1,f
  5299  130B  0CA5               	rrf	___wmul@multiplier,f
  5300  130C  3EFF               	addlw	-1
  5301  130D  1D03               	skipz
  5302  130E  2B09               	goto	u4165
  5303  130F                     l3073:
  5304  130F  0825               	movf	___wmul@multiplier,w
  5305  1310  0426               	iorwf	___wmul@multiplier+1,w
  5306  1311  1D03               	btfss	3,2
  5307  1312  2B14               	goto	u4171
  5308  1313  2B15               	goto	u4170
  5309  1314                     u4171:
  5310  1314  2AF5               	goto	l3067
  5311  1315                     u4170:
  5312  1315                     l3075:
  5313  1315  0879               	movf	___wmul@product+1,w
  5314  1316  00A6               	movwf	?___wmul+1
  5315  1317  0878               	movf	___wmul@product,w
  5316  1318  00A5               	movwf	?___wmul
  5317  1319                     l329:
  5318  1319  0008               	return
  5319  131A                     __end_of___wmul:
  5320                           
  5321                           	psect	text21
  5322  0807                     __ptext21:	
  5323 ;; *************** function ___fltol *****************
  5324 ;; Defined at:
  5325 ;;		line 43 in file "D:\PrograMicros\pic\sources\c90\common\fltol.c"
  5326 ;; Parameters:    Size  Location     Type
  5327 ;;  f1              4    2[COMMON] unsigned int 
  5328 ;; Auto vars:     Size  Location     Type
  5329 ;;  exp1            1    7[COMMON] unsigned char 
  5330 ;;  sign1           1    6[COMMON] unsigned char 
  5331 ;; Return value:  Size  Location     Type
  5332 ;;                  4    2[COMMON] long 
  5333 ;; Registers used:
  5334 ;;		wreg, status,2, status,0
  5335 ;; Tracked objects:
  5336 ;;		On entry : 0/0
  5337 ;;		On exit  : 0/0
  5338 ;;		Unchanged: 0/0
  5339 ;; Data sizes:     COMMON   BANK0   BANK1   BANK3   BANK2
  5340 ;;      Params:         4       0       0       0       0
  5341 ;;      Locals:         2       0       0       0       0
  5342 ;;      Temps:          0       5       0       0       0
  5343 ;;      Totals:         6       5       0       0       0
  5344 ;;Total ram usage:       11 bytes
  5345 ;; Hardware stack levels used:    1
  5346 ;; Hardware stack levels required when called:    1
  5347 ;; This function calls:
  5348 ;;		Nothing
  5349 ;; This function is called by:
  5350 ;;		_main
  5351 ;;		_ADC_convert
  5352 ;; This function uses a non-reentrant model
  5353 ;;
  5354                           
  5355                           
  5356                           ;psect for function ___fltol
  5357  0807                     ___fltol:
  5358  0807                     l3123:	
  5359                           ;incstack = 0
  5360                           ; Regs used in ___fltol: [wreg+status,2+status,0]
  5361                           
  5362  0807  1003               	clrc
  5363  0808  0D74               	rlf	___fltol@f1+2,w
  5364  0809  0D75               	rlf	___fltol@f1+3,w
  5365  080A  1283               	bcf	3,5	;RP0=0, select bank0
  5366  080B  1303               	bcf	3,6	;RP1=0, select bank0
  5367  080C  00A0               	movwf	??___fltol
  5368  080D  0820               	movf	??___fltol,w
  5369  080E  00F7               	movwf	___fltol@exp1
  5370  080F  0877               	movf	___fltol@exp1,w
  5371  0810  1D03               	btfss	3,2
  5372  0811  2813               	goto	u4281
  5373  0812  2814               	goto	u4280
  5374  0813                     u4281:
  5375  0813  281D               	goto	l3129
  5376  0814                     u4280:
  5377  0814                     l3125:
  5378  0814  3000               	movlw	0
  5379  0815  00F5               	movwf	?___fltol+3
  5380  0816  3000               	movlw	0
  5381  0817  00F4               	movwf	?___fltol+2
  5382  0818  3000               	movlw	0
  5383  0819  00F3               	movwf	?___fltol+1
  5384  081A  3000               	movlw	0
  5385  081B  00F2               	movwf	?___fltol
  5386  081C  2882               	goto	l513
  5387  081D                     l3129:
  5388  081D  0872               	movf	___fltol@f1,w
  5389  081E  00A0               	movwf	??___fltol
  5390  081F  0873               	movf	___fltol@f1+1,w
  5391  0820  00A1               	movwf	??___fltol+1
  5392  0821  0874               	movf	___fltol@f1+2,w
  5393  0822  00A2               	movwf	??___fltol+2
  5394  0823  0875               	movf	___fltol@f1+3,w
  5395  0824  00A3               	movwf	??___fltol+3
  5396  0825  301F               	movlw	31
  5397  0826                     u4295:
  5398  0826  1003               	clrc
  5399  0827  0CA3               	rrf	??___fltol+3,f
  5400  0828  0CA2               	rrf	??___fltol+2,f
  5401  0829  0CA1               	rrf	??___fltol+1,f
  5402  082A  0CA0               	rrf	??___fltol,f
  5403  082B                     u4290:
  5404  082B  3EFF               	addlw	-1
  5405  082C  1D03               	skipz
  5406  082D  2826               	goto	u4295
  5407  082E  0820               	movf	??___fltol,w
  5408  082F  00A4               	movwf	??___fltol+4
  5409  0830  0824               	movf	??___fltol+4,w
  5410  0831  00F6               	movwf	___fltol@sign1
  5411  0832                     l3131:
  5412  0832  17F4               	bsf	___fltol@f1+2,7
  5413  0833                     l3133:
  5414  0833  30FF               	movlw	255
  5415  0834  05F2               	andwf	___fltol@f1,f
  5416  0835  30FF               	movlw	255
  5417  0836  05F3               	andwf	___fltol@f1+1,f
  5418  0837  30FF               	movlw	255
  5419  0838  05F4               	andwf	___fltol@f1+2,f
  5420  0839  3000               	movlw	0
  5421  083A  05F5               	andwf	___fltol@f1+3,f
  5422  083B                     l3135:
  5423  083B  3096               	movlw	150
  5424  083C  02F7               	subwf	___fltol@exp1,f
  5425  083D                     l3137:
  5426  083D  1FF7               	btfss	___fltol@exp1,7
  5427  083E  2840               	goto	u4301
  5428  083F  2841               	goto	u4300
  5429  0840                     u4301:
  5430  0840  285B               	goto	l3147
  5431  0841                     u4300:
  5432  0841                     l3139:
  5433  0841  0877               	movf	___fltol@exp1,w
  5434  0842  3A80               	xorlw	128
  5435  0843  3E97               	addlw	151
  5436  0844  1803               	skipnc
  5437  0845  2847               	goto	u4311
  5438  0846  2848               	goto	u4310
  5439  0847                     u4311:
  5440  0847  2849               	goto	l3145
  5441  0848                     u4310:
  5442  0848  2814               	goto	l3125
  5443  0849                     l3145:
  5444  0849  3001               	movlw	1
  5445  084A                     u4325:
  5446  084A  1003               	clrc
  5447  084B  0CF5               	rrf	___fltol@f1+3,f
  5448  084C  0CF4               	rrf	___fltol@f1+2,f
  5449  084D  0CF3               	rrf	___fltol@f1+1,f
  5450  084E  0CF2               	rrf	___fltol@f1,f
  5451  084F  3EFF               	addlw	-1
  5452  0850  1D03               	skipz
  5453  0851  284A               	goto	u4325
  5454  0852  3001               	movlw	1
  5455  0853  00A0               	movwf	??___fltol
  5456  0854  0820               	movf	??___fltol,w
  5457  0855  07F7               	addwf	___fltol@exp1,f
  5458  0856  1D03               	btfss	3,2
  5459  0857  2859               	goto	u4331
  5460  0858  285A               	goto	u4330
  5461  0859                     u4331:
  5462  0859  2849               	goto	l3145
  5463  085A                     u4330:
  5464  085A  2872               	goto	l3155
  5465  085B                     l3147:
  5466  085B  3020               	movlw	32
  5467  085C  0277               	subwf	___fltol@exp1,w
  5468  085D  1C03               	skipc
  5469  085E  2860               	goto	u4341
  5470  085F  2861               	goto	u4340
  5471  0860                     u4341:
  5472  0860  286D               	goto	l520
  5473  0861                     u4340:
  5474  0861  2814               	goto	l3125
  5475  0862                     l3153:
  5476  0862  3001               	movlw	1
  5477  0863  00A0               	movwf	??___fltol
  5478  0864                     u4355:
  5479  0864  1003               	clrc
  5480  0865  0DF2               	rlf	___fltol@f1,f
  5481  0866  0DF3               	rlf	___fltol@f1+1,f
  5482  0867  0DF4               	rlf	___fltol@f1+2,f
  5483  0868  0DF5               	rlf	___fltol@f1+3,f
  5484  0869  0BA0               	decfsz	??___fltol,f
  5485  086A  2864               	goto	u4355
  5486  086B  3001               	movlw	1
  5487  086C  02F7               	subwf	___fltol@exp1,f
  5488  086D                     l520:
  5489  086D  0877               	movf	___fltol@exp1,w
  5490  086E  1D03               	btfss	3,2
  5491  086F  2871               	goto	u4361
  5492  0870  2872               	goto	u4360
  5493  0871                     u4361:
  5494  0871  2862               	goto	l3153
  5495  0872                     u4360:
  5496  0872                     l3155:
  5497  0872  0876               	movf	___fltol@sign1,w
  5498  0873  1903               	btfsc	3,2
  5499  0874  2876               	goto	u4371
  5500  0875  2877               	goto	u4370
  5501  0876                     u4371:
  5502  0876  2882               	goto	l523
  5503  0877                     u4370:
  5504  0877                     l3157:
  5505  0877  09F2               	comf	___fltol@f1,f
  5506  0878  09F3               	comf	___fltol@f1+1,f
  5507  0879  09F4               	comf	___fltol@f1+2,f
  5508  087A  09F5               	comf	___fltol@f1+3,f
  5509  087B  0AF2               	incf	___fltol@f1,f
  5510  087C  1903               	skipnz
  5511  087D  0AF3               	incf	___fltol@f1+1,f
  5512  087E  1903               	skipnz
  5513  087F  0AF4               	incf	___fltol@f1+2,f
  5514  0880  1903               	skipnz
  5515  0881  0AF5               	incf	___fltol@f1+3,f
  5516  0882                     l523:
  5517  0882                     l513:
  5518  0882  0008               	return
  5519  0883                     __end_of___fltol:
  5520                           
  5521                           	psect	text22
  5522  12CF                     __ptext22:	
  5523 ;; *************** function ___flsub *****************
  5524 ;; Defined at:
  5525 ;;		line 242 in file "D:\PrograMicros\pic\sources\c90\common\sprcadd.c"
  5526 ;; Parameters:    Size  Location     Type
  5527 ;;  a               4   23[BANK0 ] long 
  5528 ;;  b               4   27[BANK0 ] long 
  5529 ;; Auto vars:     Size  Location     Type
  5530 ;;		None
  5531 ;; Return value:  Size  Location     Type
  5532 ;;                  4   23[BANK0 ] long 
  5533 ;; Registers used:
  5534 ;;		wreg, status,2, status,0, btemp+1, pclath, cstack
  5535 ;; Tracked objects:
  5536 ;;		On entry : 0/0
  5537 ;;		On exit  : 0/0
  5538 ;;		Unchanged: 0/0
  5539 ;; Data sizes:     COMMON   BANK0   BANK1   BANK3   BANK2
  5540 ;;      Params:         0       8       0       0       0
  5541 ;;      Locals:         0       0       0       0       0
  5542 ;;      Temps:          0       0       0       0       0
  5543 ;;      Totals:         0       8       0       0       0
  5544 ;;Total ram usage:        8 bytes
  5545 ;; Hardware stack levels used:    1
  5546 ;; Hardware stack levels required when called:    2
  5547 ;; This function calls:
  5548 ;;		___fladd
  5549 ;; This function is called by:
  5550 ;;		_ADC_convert
  5551 ;; This function uses a non-reentrant model
  5552 ;;
  5553                           
  5554                           
  5555                           ;psect for function ___flsub
  5556  12CF                     ___flsub:
  5557  12CF                     l2379:	
  5558                           ;incstack = 0
  5559                           ; Regs used in ___flsub: [wreg+status,2+status,0+btemp+1+pclath+cstack]
  5560                           
  5561  12CF  3080               	movlw	128
  5562  12D0  1283               	bcf	3,5	;RP0=0, select bank0
  5563  12D1  1303               	bcf	3,6	;RP1=0, select bank0
  5564  12D2  06BA               	xorwf	___flsub@a+3,f
  5565  12D3                     l2381:
  5566  12D3  083E               	movf	___flsub@b+3,w
  5567  12D4  00F5               	movwf	___fladd@b+3
  5568  12D5  083D               	movf	___flsub@b+2,w
  5569  12D6  00F4               	movwf	___fladd@b+2
  5570  12D7  083C               	movf	___flsub@b+1,w
  5571  12D8  00F3               	movwf	___fladd@b+1
  5572  12D9  083B               	movf	___flsub@b,w
  5573  12DA  00F2               	movwf	___fladd@b
  5574  12DB  083A               	movf	___flsub@a+3,w
  5575  12DC  00F9               	movwf	___fladd@a+3
  5576  12DD  0839               	movf	___flsub@a+2,w
  5577  12DE  00F8               	movwf	___fladd@a+2
  5578  12DF  0838               	movf	___flsub@a+1,w
  5579  12E0  00F7               	movwf	___fladd@a+1
  5580  12E1  0837               	movf	___flsub@a,w
  5581  12E2  00F6               	movwf	___fladd@a
  5582  12E3  120A  158A  2260  160A  118A  	fcall	___fladd
  5583  12E8  0875               	movf	?___fladd+3,w
  5584  12E9  1283               	bcf	3,5	;RP0=0, select bank0
  5585  12EA  1303               	bcf	3,6	;RP1=0, select bank0
  5586  12EB  00BA               	movwf	?___flsub+3
  5587  12EC  0874               	movf	?___fladd+2,w
  5588  12ED  00B9               	movwf	?___flsub+2
  5589  12EE  0873               	movf	?___fladd+1,w
  5590  12EF  00B8               	movwf	?___flsub+1
  5591  12F0  0872               	movf	?___fladd,w
  5592  12F1  00B7               	movwf	?___flsub
  5593  12F2                     l666:
  5594  12F2  0008               	return
  5595  12F3                     __end_of___flsub:
  5596                           
  5597                           	psect	text23
  5598  0A60                     __ptext23:	
  5599 ;; *************** function ___fladd *****************
  5600 ;; Defined at:
  5601 ;;		line 10 in file "D:\PrograMicros\pic\sources\c90\common\sprcadd.c"
  5602 ;; Parameters:    Size  Location     Type
  5603 ;;  b               4    2[COMMON] long 
  5604 ;;  a               4    6[COMMON] long 
  5605 ;; Auto vars:     Size  Location     Type
  5606 ;;  grs             1   11[BANK0 ] unsigned char 
  5607 ;;  bexp            1   10[BANK0 ] unsigned char 
  5608 ;;  aexp            1    9[BANK0 ] unsigned char 
  5609 ;;  signs           1    8[BANK0 ] unsigned char 
  5610 ;; Return value:  Size  Location     Type
  5611 ;;                  4    2[COMMON] unsigned char 
  5612 ;; Registers used:
  5613 ;;		wreg, status,2, status,0, btemp+1
  5614 ;; Tracked objects:
  5615 ;;		On entry : 0/0
  5616 ;;		On exit  : 0/0
  5617 ;;		Unchanged: 0/0
  5618 ;; Data sizes:     COMMON   BANK0   BANK1   BANK3   BANK2
  5619 ;;      Params:         8       0       0       0       0
  5620 ;;      Locals:         0       4       0       0       0
  5621 ;;      Temps:          0       8       0       0       0
  5622 ;;      Totals:         8      12       0       0       0
  5623 ;;Total ram usage:       20 bytes
  5624 ;; Hardware stack levels used:    1
  5625 ;; Hardware stack levels required when called:    1
  5626 ;; This function calls:
  5627 ;;		Nothing
  5628 ;; This function is called by:
  5629 ;;		___flsub
  5630 ;; This function uses a non-reentrant model
  5631 ;;
  5632                           
  5633                           
  5634                           ;psect for function ___fladd
  5635  0A60                     ___fladd:
  5636  0A60                     l1973:	
  5637                           ;incstack = 0
  5638                           ; Regs used in ___fladd: [wreg+status,2+status,0+btemp+1]
  5639                           
  5640  0A60  0875               	movf	___fladd@b+3,w
  5641  0A61  3980               	andlw	128
  5642  0A62  1283               	bcf	3,5	;RP0=0, select bank0
  5643  0A63  1303               	bcf	3,6	;RP1=0, select bank0
  5644  0A64  00A0               	movwf	??___fladd
  5645  0A65  0820               	movf	??___fladd,w
  5646  0A66  00A8               	movwf	___fladd@signs
  5647  0A67                     l1975:
  5648  0A67  0875               	movf	___fladd@b+3,w
  5649  0A68  00A0               	movwf	??___fladd
  5650  0A69  0720               	addwf	??___fladd,w
  5651  0A6A  00A1               	movwf	??___fladd+1
  5652  0A6B  0821               	movf	??___fladd+1,w
  5653  0A6C  00AA               	movwf	___fladd@bexp
  5654  0A6D                     l1977:
  5655  0A6D  1FF4               	btfss	___fladd@b+2,7
  5656  0A6E  2A70               	goto	u2131
  5657  0A6F  2A71               	goto	u2130
  5658  0A70                     u2131:
  5659  0A70  2A72               	goto	l1981
  5660  0A71                     u2130:
  5661  0A71                     l1979:
  5662  0A71  142A               	bsf	___fladd@bexp,0
  5663  0A72                     l1981:
  5664  0A72  082A               	movf	___fladd@bexp,w
  5665  0A73  1903               	btfsc	3,2
  5666  0A74  2A76               	goto	u2141
  5667  0A75  2A77               	goto	u2140
  5668  0A76                     u2141:
  5669  0A76  2A87               	goto	l1991
  5670  0A77                     u2140:
  5671  0A77                     l1983:
  5672  0A77  0A2A               	incf	___fladd@bexp,w
  5673  0A78  1D03               	btfss	3,2
  5674  0A79  2A7B               	goto	u2151
  5675  0A7A  2A7C               	goto	u2150
  5676  0A7B                     u2151:
  5677  0A7B  2A84               	goto	l1987
  5678  0A7C                     u2150:
  5679  0A7C                     l1985:
  5680  0A7C  3000               	movlw	0
  5681  0A7D  00F5               	movwf	___fladd@b+3
  5682  0A7E  3000               	movlw	0
  5683  0A7F  00F4               	movwf	___fladd@b+2
  5684  0A80  3000               	movlw	0
  5685  0A81  00F3               	movwf	___fladd@b+1
  5686  0A82  3000               	movlw	0
  5687  0A83  00F2               	movwf	___fladd@b
  5688  0A84                     l1987:
  5689  0A84  17F4               	bsf	___fladd@b+2,7
  5690  0A85                     l1989:
  5691  0A85  01F5               	clrf	___fladd@b+3
  5692  0A86  2A8F               	goto	l1993
  5693  0A87                     l1991:
  5694  0A87  3000               	movlw	0
  5695  0A88  00F5               	movwf	___fladd@b+3
  5696  0A89  3000               	movlw	0
  5697  0A8A  00F4               	movwf	___fladd@b+2
  5698  0A8B  3000               	movlw	0
  5699  0A8C  00F3               	movwf	___fladd@b+1
  5700  0A8D  3000               	movlw	0
  5701  0A8E  00F2               	movwf	___fladd@b
  5702  0A8F                     l1993:
  5703  0A8F  0879               	movf	___fladd@a+3,w
  5704  0A90  3980               	andlw	128
  5705  0A91  00A0               	movwf	??___fladd
  5706  0A92  0820               	movf	??___fladd,w
  5707  0A93  00A9               	movwf	___fladd@aexp
  5708  0A94                     l1995:
  5709  0A94  0829               	movf	___fladd@aexp,w
  5710  0A95  0628               	xorwf	___fladd@signs,w
  5711  0A96  1903               	skipnz
  5712  0A97  2A99               	goto	u2161
  5713  0A98  2A9A               	goto	u2160
  5714  0A99                     u2161:
  5715  0A99  2A9B               	goto	l1999
  5716  0A9A                     u2160:
  5717  0A9A                     l1997:
  5718  0A9A  1728               	bsf	___fladd@signs,6
  5719  0A9B                     l1999:
  5720  0A9B  0879               	movf	___fladd@a+3,w
  5721  0A9C  00A0               	movwf	??___fladd
  5722  0A9D  0720               	addwf	??___fladd,w
  5723  0A9E  00A1               	movwf	??___fladd+1
  5724  0A9F  0821               	movf	??___fladd+1,w
  5725  0AA0  00A9               	movwf	___fladd@aexp
  5726  0AA1                     l2001:
  5727  0AA1  1FF8               	btfss	___fladd@a+2,7
  5728  0AA2  2AA4               	goto	u2171
  5729  0AA3  2AA5               	goto	u2170
  5730  0AA4                     u2171:
  5731  0AA4  2AA6               	goto	l2005
  5732  0AA5                     u2170:
  5733  0AA5                     l2003:
  5734  0AA5  1429               	bsf	___fladd@aexp,0
  5735  0AA6                     l2005:
  5736  0AA6  0829               	movf	___fladd@aexp,w
  5737  0AA7  1903               	btfsc	3,2
  5738  0AA8  2AAA               	goto	u2181
  5739  0AA9  2AAB               	goto	u2180
  5740  0AAA                     u2181:
  5741  0AAA  2ABB               	goto	l2015
  5742  0AAB                     u2180:
  5743  0AAB                     l2007:
  5744  0AAB  0A29               	incf	___fladd@aexp,w
  5745  0AAC  1D03               	btfss	3,2
  5746  0AAD  2AAF               	goto	u2191
  5747  0AAE  2AB0               	goto	u2190
  5748  0AAF                     u2191:
  5749  0AAF  2AB8               	goto	l2011
  5750  0AB0                     u2190:
  5751  0AB0                     l2009:
  5752  0AB0  3000               	movlw	0
  5753  0AB1  00F9               	movwf	___fladd@a+3
  5754  0AB2  3000               	movlw	0
  5755  0AB3  00F8               	movwf	___fladd@a+2
  5756  0AB4  3000               	movlw	0
  5757  0AB5  00F7               	movwf	___fladd@a+1
  5758  0AB6  3000               	movlw	0
  5759  0AB7  00F6               	movwf	___fladd@a
  5760  0AB8                     l2011:
  5761  0AB8  17F8               	bsf	___fladd@a+2,7
  5762  0AB9                     l2013:
  5763  0AB9  01F9               	clrf	___fladd@a+3
  5764  0ABA  2AC3               	goto	l620
  5765  0ABB                     l2015:
  5766  0ABB  3000               	movlw	0
  5767  0ABC  00F9               	movwf	___fladd@a+3
  5768  0ABD  3000               	movlw	0
  5769  0ABE  00F8               	movwf	___fladd@a+2
  5770  0ABF  3000               	movlw	0
  5771  0AC0  00F7               	movwf	___fladd@a+1
  5772  0AC1  3000               	movlw	0
  5773  0AC2  00F6               	movwf	___fladd@a
  5774  0AC3                     l620:
  5775  0AC3  082A               	movf	___fladd@bexp,w
  5776  0AC4  0229               	subwf	___fladd@aexp,w
  5777  0AC5  1803               	skipnc
  5778  0AC6  2AC8               	goto	u2201
  5779  0AC7  2AC9               	goto	u2200
  5780  0AC8                     u2201:
  5781  0AC8  2B0D               	goto	l2051
  5782  0AC9                     u2200:
  5783  0AC9                     l2017:
  5784  0AC9  1F28               	btfss	___fladd@signs,6
  5785  0ACA  2ACC               	goto	u2211
  5786  0ACB  2ACD               	goto	u2210
  5787  0ACC                     u2211:
  5788  0ACC  2AD1               	goto	l2021
  5789  0ACD                     u2210:
  5790  0ACD                     l2019:
  5791  0ACD  3080               	movlw	128
  5792  0ACE  00A0               	movwf	??___fladd
  5793  0ACF  0820               	movf	??___fladd,w
  5794  0AD0  06A8               	xorwf	___fladd@signs,f
  5795  0AD1                     l2021:
  5796  0AD1  082A               	movf	___fladd@bexp,w
  5797  0AD2  00A0               	movwf	??___fladd
  5798  0AD3  0820               	movf	??___fladd,w
  5799  0AD4  00AB               	movwf	___fladd@grs
  5800  0AD5                     l2023:
  5801  0AD5  0829               	movf	___fladd@aexp,w
  5802  0AD6  00A0               	movwf	??___fladd
  5803  0AD7  0820               	movf	??___fladd,w
  5804  0AD8  00AA               	movwf	___fladd@bexp
  5805  0AD9                     l2025:
  5806  0AD9  082B               	movf	___fladd@grs,w
  5807  0ADA  00A0               	movwf	??___fladd
  5808  0ADB  0820               	movf	??___fladd,w
  5809  0ADC  00A9               	movwf	___fladd@aexp
  5810  0ADD                     l2027:
  5811  0ADD  0872               	movf	___fladd@b,w
  5812  0ADE  00A0               	movwf	??___fladd
  5813  0ADF  0820               	movf	??___fladd,w
  5814  0AE0  00AB               	movwf	___fladd@grs
  5815  0AE1                     l2029:
  5816  0AE1  0876               	movf	___fladd@a,w
  5817  0AE2  00A0               	movwf	??___fladd
  5818  0AE3  0820               	movf	??___fladd,w
  5819  0AE4  00F2               	movwf	___fladd@b
  5820  0AE5                     l2031:
  5821  0AE5  082B               	movf	___fladd@grs,w
  5822  0AE6  00A0               	movwf	??___fladd
  5823  0AE7  0820               	movf	??___fladd,w
  5824  0AE8  00F6               	movwf	___fladd@a
  5825  0AE9                     l2033:
  5826  0AE9  0873               	movf	___fladd@b+1,w
  5827  0AEA  00A0               	movwf	??___fladd
  5828  0AEB  0820               	movf	??___fladd,w
  5829  0AEC  00AB               	movwf	___fladd@grs
  5830  0AED                     l2035:
  5831  0AED  0877               	movf	___fladd@a+1,w
  5832  0AEE  00A0               	movwf	??___fladd
  5833  0AEF  0820               	movf	??___fladd,w
  5834  0AF0  00F3               	movwf	___fladd@b+1
  5835  0AF1                     l2037:
  5836  0AF1  082B               	movf	___fladd@grs,w
  5837  0AF2  00A0               	movwf	??___fladd
  5838  0AF3  0820               	movf	??___fladd,w
  5839  0AF4  00F7               	movwf	___fladd@a+1
  5840  0AF5                     l2039:
  5841  0AF5  0874               	movf	___fladd@b+2,w
  5842  0AF6  00A0               	movwf	??___fladd
  5843  0AF7  0820               	movf	??___fladd,w
  5844  0AF8  00AB               	movwf	___fladd@grs
  5845  0AF9                     l2041:
  5846  0AF9  0878               	movf	___fladd@a+2,w
  5847  0AFA  00A0               	movwf	??___fladd
  5848  0AFB  0820               	movf	??___fladd,w
  5849  0AFC  00F4               	movwf	___fladd@b+2
  5850  0AFD                     l2043:
  5851  0AFD  082B               	movf	___fladd@grs,w
  5852  0AFE  00A0               	movwf	??___fladd
  5853  0AFF  0820               	movf	??___fladd,w
  5854  0B00  00F8               	movwf	___fladd@a+2
  5855  0B01                     l2045:
  5856  0B01  0875               	movf	___fladd@b+3,w
  5857  0B02  00A0               	movwf	??___fladd
  5858  0B03  0820               	movf	??___fladd,w
  5859  0B04  00AB               	movwf	___fladd@grs
  5860  0B05                     l2047:
  5861  0B05  0879               	movf	___fladd@a+3,w
  5862  0B06  00A0               	movwf	??___fladd
  5863  0B07  0820               	movf	??___fladd,w
  5864  0B08  00F5               	movwf	___fladd@b+3
  5865  0B09                     l2049:
  5866  0B09  082B               	movf	___fladd@grs,w
  5867  0B0A  00A0               	movwf	??___fladd
  5868  0B0B  0820               	movf	??___fladd,w
  5869  0B0C  00F9               	movwf	___fladd@a+3
  5870  0B0D                     l2051:
  5871  0B0D  01AB               	clrf	___fladd@grs
  5872  0B0E                     l2053:
  5873  0B0E  0829               	movf	___fladd@aexp,w
  5874  0B0F  00A0               	movwf	??___fladd
  5875  0B10  01A1               	clrf	??___fladd+1
  5876  0B11  0821               	movf	??___fladd+1,w
  5877  0B12  00A3               	movwf	??___fladd+3
  5878  0B13  082A               	movf	___fladd@bexp,w
  5879  0B14  0220               	subwf	??___fladd,w
  5880  0B15  00A2               	movwf	??___fladd+2
  5881  0B16  1C03               	skipc
  5882  0B17  03A3               	decf	??___fladd+3,f
  5883  0B18  0823               	movf	??___fladd+3,w
  5884  0B19  3A80               	xorlw	128
  5885  0B1A  00FF               	movwf	btemp+1
  5886  0B1B  3080               	movlw	128
  5887  0B1C  027F               	subwf	btemp+1,w
  5888  0B1D  1D03               	skipz
  5889  0B1E  2B21               	goto	u2225
  5890  0B1F  301A               	movlw	26
  5891  0B20  0222               	subwf	??___fladd+2,w
  5892  0B21                     u2225:
  5893  0B21  1C03               	skipc
  5894  0B22  2B24               	goto	u2221
  5895  0B23  2B25               	goto	u2220
  5896  0B24                     u2221:
  5897  0B24  2B62               	goto	l2069
  5898  0B25                     u2220:
  5899  0B25                     l2055:
  5900  0B25  0875               	movf	___fladd@b+3,w
  5901  0B26  0474               	iorwf	___fladd@b+2,w
  5902  0B27  0473               	iorwf	___fladd@b+1,w
  5903  0B28  0472               	iorwf	___fladd@b,w
  5904  0B29  1D03               	skipz
  5905  0B2A  2B2C               	goto	u2231
  5906  0B2B  2B2E               	goto	u2230
  5907  0B2C                     u2231:
  5908  0B2C  3001               	movlw	1
  5909  0B2D  2B2F               	goto	u2240
  5910  0B2E                     u2230:
  5911  0B2E  3000               	movlw	0
  5912  0B2F                     u2240:
  5913  0B2F  1283               	bcf	3,5	;RP0=0, select bank0
  5914  0B30  1303               	bcf	3,6	;RP1=0, select bank0
  5915  0B31  00A0               	movwf	??___fladd
  5916  0B32  0820               	movf	??___fladd,w
  5917  0B33  00AB               	movwf	___fladd@grs
  5918  0B34  3000               	movlw	0
  5919  0B35  00F5               	movwf	___fladd@b+3
  5920  0B36  3000               	movlw	0
  5921  0B37  00F4               	movwf	___fladd@b+2
  5922  0B38  3000               	movlw	0
  5923  0B39  00F3               	movwf	___fladd@b+1
  5924  0B3A  3000               	movlw	0
  5925  0B3B  00F2               	movwf	___fladd@b
  5926  0B3C  0829               	movf	___fladd@aexp,w
  5927  0B3D  00A0               	movwf	??___fladd
  5928  0B3E  0820               	movf	??___fladd,w
  5929  0B3F  00AA               	movwf	___fladd@bexp
  5930  0B40  2B6A               	goto	l624
  5931  0B41                     l626:
  5932  0B41  1C2B               	btfss	___fladd@grs,0
  5933  0B42  2B44               	goto	u2251
  5934  0B43  2B45               	goto	u2250
  5935  0B44                     u2251:
  5936  0B44  2B4E               	goto	l2059
  5937  0B45                     u2250:
  5938  0B45                     l2057:
  5939  0B45  082B               	movf	___fladd@grs,w
  5940  0B46  00A0               	movwf	??___fladd
  5941  0B47  1003               	clrc
  5942  0B48  0C20               	rrf	??___fladd,w
  5943  0B49  3801               	iorlw	1
  5944  0B4A  00A1               	movwf	??___fladd+1
  5945  0B4B  0821               	movf	??___fladd+1,w
  5946  0B4C  00AB               	movwf	___fladd@grs
  5947  0B4D  2B50               	goto	l2061
  5948  0B4E                     l2059:
  5949  0B4E  1003               	clrc
  5950  0B4F  0CAB               	rrf	___fladd@grs,f
  5951  0B50                     l2061:
  5952  0B50  1C72               	btfss	___fladd@b,0
  5953  0B51  2B53               	goto	u2261
  5954  0B52  2B54               	goto	u2260
  5955  0B53                     u2261:
  5956  0B53  2B55               	goto	l2065
  5957  0B54                     u2260:
  5958  0B54                     l2063:
  5959  0B54  17AB               	bsf	___fladd@grs,7
  5960  0B55                     l2065:
  5961  0B55  3001               	movlw	1
  5962  0B56  00A0               	movwf	??___fladd
  5963  0B57                     u2275:
  5964  0B57  0D75               	rlf	___fladd@b+3,w
  5965  0B58  0CF5               	rrf	___fladd@b+3,f
  5966  0B59  0CF4               	rrf	___fladd@b+2,f
  5967  0B5A  0CF3               	rrf	___fladd@b+1,f
  5968  0B5B  0CF2               	rrf	___fladd@b,f
  5969  0B5C  0BA0               	decfsz	??___fladd& (0+127),f
  5970  0B5D  2B57               	goto	u2275
  5971  0B5E                     l2067:
  5972  0B5E  3001               	movlw	1
  5973  0B5F  00A0               	movwf	??___fladd
  5974  0B60  0820               	movf	??___fladd,w
  5975  0B61  07AA               	addwf	___fladd@bexp,f
  5976  0B62                     l2069:
  5977  0B62  1283               	bcf	3,5	;RP0=0, select bank0
  5978  0B63  1303               	bcf	3,6	;RP1=0, select bank0
  5979  0B64  0829               	movf	___fladd@aexp,w
  5980  0B65  022A               	subwf	___fladd@bexp,w
  5981  0B66  1C03               	skipc
  5982  0B67  2B69               	goto	u2281
  5983  0B68  2B6A               	goto	u2280
  5984  0B69                     u2281:
  5985  0B69  2B41               	goto	l626
  5986  0B6A                     u2280:
  5987  0B6A                     l624:
  5988  0B6A  1B28               	btfsc	___fladd@signs,6
  5989  0B6B  2B6D               	goto	u2291
  5990  0B6C  2B6E               	goto	u2290
  5991  0B6D                     u2291:
  5992  0B6D  2BB9               	goto	l2095
  5993  0B6E                     u2290:
  5994  0B6E                     l2071:
  5995  0B6E  082A               	movf	___fladd@bexp,w
  5996  0B6F  1D03               	btfss	3,2
  5997  0B70  2B72               	goto	u2301
  5998  0B71  2B73               	goto	u2300
  5999  0B72                     u2301:
  6000  0B72  2B7C               	goto	l2077
  6001  0B73                     u2300:
  6002  0B73                     l2073:
  6003  0B73  3000               	movlw	0
  6004  0B74  00F5               	movwf	?___fladd+3
  6005  0B75  3000               	movlw	0
  6006  0B76  00F4               	movwf	?___fladd+2
  6007  0B77  3000               	movlw	0
  6008  0B78  00F3               	movwf	?___fladd+1
  6009  0B79  3000               	movlw	0
  6010  0B7A  00F2               	movwf	?___fladd
  6011  0B7B  2CE7               	goto	l633
  6012  0B7C                     l2077:
  6013  0B7C  0876               	movf	___fladd@a,w
  6014  0B7D  07F2               	addwf	___fladd@b,f
  6015  0B7E  0877               	movf	___fladd@a+1,w
  6016  0B7F  1103               	clrz
  6017  0B80  1803               	skipnc
  6018  0B81  3E01               	addlw	1
  6019  0B82  1903               	skipnz
  6020  0B83  2B85               	goto	u2311
  6021  0B84  07F3               	addwf	___fladd@b+1,f
  6022  0B85                     u2311:
  6023  0B85  0878               	movf	___fladd@a+2,w
  6024  0B86  1103               	clrz
  6025  0B87  1803               	skipnc
  6026  0B88  3E01               	addlw	1
  6027  0B89  1903               	skipnz
  6028  0B8A  2B8C               	goto	u2312
  6029  0B8B  07F4               	addwf	___fladd@b+2,f
  6030  0B8C                     u2312:
  6031  0B8C  0879               	movf	___fladd@a+3,w
  6032  0B8D  1103               	clrz
  6033  0B8E  1803               	skipnc
  6034  0B8F  3E01               	addlw	1
  6035  0B90  1903               	skipnz
  6036  0B91  2B93               	goto	u2313
  6037  0B92  07F5               	addwf	___fladd@b+3,f
  6038  0B93                     u2313:
  6039  0B93                     l2079:
  6040  0B93  1C75               	btfss	___fladd@b+3,0
  6041  0B94  2B96               	goto	u2321
  6042  0B95  2B97               	goto	u2320
  6043  0B96                     u2321:
  6044  0B96  2C6D               	goto	l2129
  6045  0B97                     u2320:
  6046  0B97                     l2081:
  6047  0B97  1C2B               	btfss	___fladd@grs,0
  6048  0B98  2B9A               	goto	u2331
  6049  0B99  2B9B               	goto	u2330
  6050  0B9A                     u2331:
  6051  0B9A  2BA4               	goto	l2085
  6052  0B9B                     u2330:
  6053  0B9B                     l2083:
  6054  0B9B  082B               	movf	___fladd@grs,w
  6055  0B9C  00A0               	movwf	??___fladd
  6056  0B9D  1003               	clrc
  6057  0B9E  0C20               	rrf	??___fladd,w
  6058  0B9F  3801               	iorlw	1
  6059  0BA0  00A1               	movwf	??___fladd+1
  6060  0BA1  0821               	movf	??___fladd+1,w
  6061  0BA2  00AB               	movwf	___fladd@grs
  6062  0BA3  2BA6               	goto	l2087
  6063  0BA4                     l2085:
  6064  0BA4  1003               	clrc
  6065  0BA5  0CAB               	rrf	___fladd@grs,f
  6066  0BA6                     l2087:
  6067  0BA6  1C72               	btfss	___fladd@b,0
  6068  0BA7  2BA9               	goto	u2341
  6069  0BA8  2BAA               	goto	u2340
  6070  0BA9                     u2341:
  6071  0BA9  2BAB               	goto	l2091
  6072  0BAA                     u2340:
  6073  0BAA                     l2089:
  6074  0BAA  17AB               	bsf	___fladd@grs,7
  6075  0BAB                     l2091:
  6076  0BAB  3001               	movlw	1
  6077  0BAC  00A0               	movwf	??___fladd
  6078  0BAD                     u2355:
  6079  0BAD  0D75               	rlf	___fladd@b+3,w
  6080  0BAE  0CF5               	rrf	___fladd@b+3,f
  6081  0BAF  0CF4               	rrf	___fladd@b+2,f
  6082  0BB0  0CF3               	rrf	___fladd@b+1,f
  6083  0BB1  0CF2               	rrf	___fladd@b,f
  6084  0BB2  0BA0               	decfsz	??___fladd& (0+127),f
  6085  0BB3  2BAD               	goto	u2355
  6086  0BB4                     l2093:
  6087  0BB4  3001               	movlw	1
  6088  0BB5  00A0               	movwf	??___fladd
  6089  0BB6  0820               	movf	??___fladd,w
  6090  0BB7  07AA               	addwf	___fladd@bexp,f
  6091  0BB8  2C6D               	goto	l2129
  6092  0BB9                     l2095:
  6093  0BB9  0875               	movf	___fladd@b+3,w
  6094  0BBA  3A80               	xorlw	128
  6095  0BBB  00FF               	movwf	btemp+1
  6096  0BBC  0879               	movf	___fladd@a+3,w
  6097  0BBD  3A80               	xorlw	128
  6098  0BBE  027F               	subwf	btemp+1,w
  6099  0BBF  1D03               	skipz
  6100  0BC0  2BCB               	goto	u2363
  6101  0BC1  0878               	movf	___fladd@a+2,w
  6102  0BC2  0274               	subwf	___fladd@b+2,w
  6103  0BC3  1D03               	skipz
  6104  0BC4  2BCB               	goto	u2363
  6105  0BC5  0877               	movf	___fladd@a+1,w
  6106  0BC6  0273               	subwf	___fladd@b+1,w
  6107  0BC7  1D03               	skipz
  6108  0BC8  2BCB               	goto	u2363
  6109  0BC9  0876               	movf	___fladd@a,w
  6110  0BCA  0272               	subwf	___fladd@b,w
  6111  0BCB                     u2363:
  6112  0BCB  1803               	skipnc
  6113  0BCC  2BCE               	goto	u2361
  6114  0BCD  2BCF               	goto	u2360
  6115  0BCE                     u2361:
  6116  0BCE  2C27               	goto	l2105
  6117  0BCF                     u2360:
  6118  0BCF                     l2097:
  6119  0BCF  30FF               	movlw	255
  6120  0BD0  00A0               	movwf	??___fladd
  6121  0BD1  30FF               	movlw	255
  6122  0BD2  00A1               	movwf	??___fladd+1
  6123  0BD3  30FF               	movlw	255
  6124  0BD4  00A2               	movwf	??___fladd+2
  6125  0BD5  30FF               	movlw	255
  6126  0BD6  00A3               	movwf	??___fladd+3
  6127  0BD7  0876               	movf	___fladd@a,w
  6128  0BD8  00A4               	movwf	??___fladd+4
  6129  0BD9  0877               	movf	___fladd@a+1,w
  6130  0BDA  00A5               	movwf	??___fladd+5
  6131  0BDB  0878               	movf	___fladd@a+2,w
  6132  0BDC  00A6               	movwf	??___fladd+6
  6133  0BDD  0879               	movf	___fladd@a+3,w
  6134  0BDE  00A7               	movwf	??___fladd+7
  6135  0BDF  0872               	movf	___fladd@b,w
  6136  0BE0  02A4               	subwf	??___fladd+4,f
  6137  0BE1  0873               	movf	___fladd@b+1,w
  6138  0BE2  1C03               	skipc
  6139  0BE3  0F73               	incfsz	___fladd@b+1,w
  6140  0BE4  2BE6               	goto	u2371
  6141  0BE5  2BE7               	goto	u2372
  6142  0BE6                     u2371:
  6143  0BE6  02A5               	subwf	??___fladd+5,f
  6144  0BE7                     u2372:
  6145  0BE7  0874               	movf	___fladd@b+2,w
  6146  0BE8  1C03               	skipc
  6147  0BE9  0F74               	incfsz	___fladd@b+2,w
  6148  0BEA  2BEC               	goto	u2373
  6149  0BEB  2BED               	goto	u2374
  6150  0BEC                     u2373:
  6151  0BEC  02A6               	subwf	??___fladd+6,f
  6152  0BED                     u2374:
  6153  0BED  0875               	movf	___fladd@b+3,w
  6154  0BEE  1C03               	skipc
  6155  0BEF  0F75               	incfsz	___fladd@b+3,w
  6156  0BF0  2BF2               	goto	u2375
  6157  0BF1  2BF3               	goto	u2376
  6158  0BF2                     u2375:
  6159  0BF2  02A7               	subwf	??___fladd+7,f
  6160  0BF3                     u2376:
  6161  0BF3  0824               	movf	??___fladd+4,w
  6162  0BF4  07A0               	addwf	??___fladd,f
  6163  0BF5  0825               	movf	??___fladd+5,w
  6164  0BF6  1803               	skipnc
  6165  0BF7  0F25               	incfsz	??___fladd+5,w
  6166  0BF8  2BFA               	goto	u2380
  6167  0BF9  2BFB               	goto	u2381
  6168  0BFA                     u2380:
  6169  0BFA  07A1               	addwf	??___fladd+1,f
  6170  0BFB                     u2381:
  6171  0BFB  0826               	movf	??___fladd+6,w
  6172  0BFC  1803               	skipnc
  6173  0BFD  0F26               	incfsz	??___fladd+6,w
  6174  0BFE  2C00               	goto	u2382
  6175  0BFF  2C01               	goto	u2383
  6176  0C00                     u2382:
  6177  0C00  07A2               	addwf	??___fladd+2,f
  6178  0C01                     u2383:
  6179  0C01  0827               	movf	??___fladd+7,w
  6180  0C02  1803               	skipnc
  6181  0C03  0A27               	incf	??___fladd+7,w
  6182  0C04  07A3               	addwf	??___fladd+3,f
  6183  0C05  0823               	movf	??___fladd+3,w
  6184  0C06  00F5               	movwf	___fladd@b+3
  6185  0C07  0822               	movf	??___fladd+2,w
  6186  0C08  00F4               	movwf	___fladd@b+2
  6187  0C09  0821               	movf	??___fladd+1,w
  6188  0C0A  00F3               	movwf	___fladd@b+1
  6189  0C0B  0820               	movf	??___fladd,w
  6190  0C0C  00F2               	movwf	___fladd@b
  6191  0C0D                     l2099:
  6192  0C0D  3080               	movlw	128
  6193  0C0E  00A0               	movwf	??___fladd
  6194  0C0F  0820               	movf	??___fladd,w
  6195  0C10  06A8               	xorwf	___fladd@signs,f
  6196  0C11  09AB               	comf	___fladd@grs,f
  6197  0C12  0AAB               	incf	___fladd@grs,f
  6198  0C13                     l2101:
  6199  0C13  082B               	movf	___fladd@grs,w
  6200  0C14  1D03               	btfss	3,2
  6201  0C15  2C17               	goto	u2391
  6202  0C16  2C18               	goto	u2390
  6203  0C17                     u2391:
  6204  0C17  2C35               	goto	l641
  6205  0C18                     u2390:
  6206  0C18                     l2103:
  6207  0C18  3001               	movlw	1
  6208  0C19  07F2               	addwf	___fladd@b,f
  6209  0C1A  3000               	movlw	0
  6210  0C1B  1803               	skipnc
  6211  0C1C  3001               	movlw	1
  6212  0C1D  07F3               	addwf	___fladd@b+1,f
  6213  0C1E  3000               	movlw	0
  6214  0C1F  1803               	skipnc
  6215  0C20  3001               	movlw	1
  6216  0C21  07F4               	addwf	___fladd@b+2,f
  6217  0C22  3000               	movlw	0
  6218  0C23  1803               	skipnc
  6219  0C24  3001               	movlw	1
  6220  0C25  07F5               	addwf	___fladd@b+3,f
  6221  0C26  2C35               	goto	l641
  6222  0C27                     l2105:
  6223  0C27  0876               	movf	___fladd@a,w
  6224  0C28  02F2               	subwf	___fladd@b,f
  6225  0C29  0877               	movf	___fladd@a+1,w
  6226  0C2A  1C03               	skipc
  6227  0C2B  0F77               	incfsz	___fladd@a+1,w
  6228  0C2C  02F3               	subwf	___fladd@b+1,f
  6229  0C2D  0878               	movf	___fladd@a+2,w
  6230  0C2E  1C03               	skipc
  6231  0C2F  0F78               	incfsz	___fladd@a+2,w
  6232  0C30  02F4               	subwf	___fladd@b+2,f
  6233  0C31  0879               	movf	___fladd@a+3,w
  6234  0C32  1C03               	skipc
  6235  0C33  0F79               	incfsz	___fladd@a+3,w
  6236  0C34  02F5               	subwf	___fladd@b+3,f
  6237  0C35                     l641:
  6238  0C35  0875               	movf	___fladd@b+3,w
  6239  0C36  0474               	iorwf	___fladd@b+2,w
  6240  0C37  0473               	iorwf	___fladd@b+1,w
  6241  0C38  0472               	iorwf	___fladd@b,w
  6242  0C39  1D03               	skipz
  6243  0C3A  2C3C               	goto	u2401
  6244  0C3B  2C3D               	goto	u2400
  6245  0C3C                     u2401:
  6246  0C3C  2C69               	goto	l2127
  6247  0C3D                     u2400:
  6248  0C3D                     l2107:
  6249  0C3D  082B               	movf	___fladd@grs,w
  6250  0C3E  1D03               	btfss	3,2
  6251  0C3F  2C41               	goto	u2411
  6252  0C40  2C42               	goto	u2410
  6253  0C41                     u2411:
  6254  0C41  2C69               	goto	l2127
  6255  0C42                     u2410:
  6256  0C42                     l2109:
  6257  0C42  3000               	movlw	0
  6258  0C43  00F5               	movwf	?___fladd+3
  6259  0C44  3000               	movlw	0
  6260  0C45  00F4               	movwf	?___fladd+2
  6261  0C46  3000               	movlw	0
  6262  0C47  00F3               	movwf	?___fladd+1
  6263  0C48  3000               	movlw	0
  6264  0C49  00F2               	movwf	?___fladd
  6265  0C4A  2CE7               	goto	l633
  6266  0C4B                     l2113:
  6267  0C4B  3001               	movlw	1
  6268  0C4C  00A0               	movwf	??___fladd
  6269  0C4D                     u2425:
  6270  0C4D  1003               	clrc
  6271  0C4E  0DF2               	rlf	___fladd@b,f
  6272  0C4F  0DF3               	rlf	___fladd@b+1,f
  6273  0C50  0DF4               	rlf	___fladd@b+2,f
  6274  0C51  0DF5               	rlf	___fladd@b+3,f
  6275  0C52  0BA0               	decfsz	??___fladd,f
  6276  0C53  2C4D               	goto	u2425
  6277  0C54                     l2115:
  6278  0C54  1FAB               	btfss	___fladd@grs,7
  6279  0C55  2C57               	goto	u2431
  6280  0C56  2C58               	goto	u2430
  6281  0C57                     u2431:
  6282  0C57  2C59               	goto	l645
  6283  0C58                     u2430:
  6284  0C58                     l2117:
  6285  0C58  1472               	bsf	___fladd@b,0
  6286  0C59                     l645:
  6287  0C59  1C2B               	btfss	___fladd@grs,0
  6288  0C5A  2C5C               	goto	u2441
  6289  0C5B  2C5D               	goto	u2440
  6290  0C5C                     u2441:
  6291  0C5C  2C60               	goto	l2121
  6292  0C5D                     u2440:
  6293  0C5D                     l2119:
  6294  0C5D  1403               	setc
  6295  0C5E  0DAB               	rlf	___fladd@grs,f
  6296  0C5F  2C62               	goto	l2123
  6297  0C60                     l2121:
  6298  0C60  1003               	clrc
  6299  0C61  0DAB               	rlf	___fladd@grs,f
  6300  0C62                     l2123:
  6301  0C62  082A               	movf	___fladd@bexp,w
  6302  0C63  1903               	btfsc	3,2
  6303  0C64  2C66               	goto	u2451
  6304  0C65  2C67               	goto	u2450
  6305  0C66                     u2451:
  6306  0C66  2C69               	goto	l2127
  6307  0C67                     u2450:
  6308  0C67                     l2125:
  6309  0C67  3001               	movlw	1
  6310  0C68  02AA               	subwf	___fladd@bexp,f
  6311  0C69                     l2127:
  6312  0C69  1FF4               	btfss	___fladd@b+2,7
  6313  0C6A  2C6C               	goto	u2461
  6314  0C6B  2C6D               	goto	u2460
  6315  0C6C                     u2461:
  6316  0C6C  2C4B               	goto	l2113
  6317  0C6D                     u2460:
  6318  0C6D                     l2129:
  6319  0C6D  01A9               	clrf	___fladd@aexp
  6320  0C6E                     l2131:
  6321  0C6E  1FAB               	btfss	___fladd@grs,7
  6322  0C6F  2C71               	goto	u2471
  6323  0C70  2C72               	goto	u2470
  6324  0C71                     u2471:
  6325  0C71  2C80               	goto	l2139
  6326  0C72                     u2470:
  6327  0C72                     l2133:
  6328  0C72  082B               	movf	___fladd@grs,w
  6329  0C73  397F               	andlw	127
  6330  0C74  1903               	btfsc	3,2
  6331  0C75  2C77               	goto	u2481
  6332  0C76  2C78               	goto	u2480
  6333  0C77                     u2481:
  6334  0C77  2C7B               	goto	l651
  6335  0C78                     u2480:
  6336  0C78                     l2135:
  6337  0C78  01A9               	clrf	___fladd@aexp
  6338  0C79  0AA9               	incf	___fladd@aexp,f
  6339  0C7A  2C80               	goto	l2139
  6340  0C7B                     l651:
  6341  0C7B  1C72               	btfss	___fladd@b,0
  6342  0C7C  2C7E               	goto	u2491
  6343  0C7D  2C7F               	goto	u2490
  6344  0C7E                     u2491:
  6345  0C7E  2C80               	goto	l2139
  6346  0C7F                     u2490:
  6347  0C7F  2C78               	goto	l2135
  6348  0C80                     l2139:
  6349  0C80  0829               	movf	___fladd@aexp,w
  6350  0C81  1903               	btfsc	3,2
  6351  0C82  2C84               	goto	u2501
  6352  0C83  2C85               	goto	u2500
  6353  0C84                     u2501:
  6354  0C84  2CB9               	goto	l654
  6355  0C85                     u2500:
  6356  0C85                     l2141:
  6357  0C85  3001               	movlw	1
  6358  0C86  07F2               	addwf	___fladd@b,f
  6359  0C87  3000               	movlw	0
  6360  0C88  1803               	skipnc
  6361  0C89  3001               	movlw	1
  6362  0C8A  07F3               	addwf	___fladd@b+1,f
  6363  0C8B  3000               	movlw	0
  6364  0C8C  1803               	skipnc
  6365  0C8D  3001               	movlw	1
  6366  0C8E  07F4               	addwf	___fladd@b+2,f
  6367  0C8F  3000               	movlw	0
  6368  0C90  1803               	skipnc
  6369  0C91  3001               	movlw	1
  6370  0C92  07F5               	addwf	___fladd@b+3,f
  6371  0C93                     l2143:
  6372  0C93  1C75               	btfss	___fladd@b+3,0
  6373  0C94  2C96               	goto	u2511
  6374  0C95  2C97               	goto	u2510
  6375  0C96                     u2511:
  6376  0C96  2CB9               	goto	l654
  6377  0C97                     u2510:
  6378  0C97                     l2145:
  6379  0C97  0872               	movf	___fladd@b,w
  6380  0C98  00A0               	movwf	??___fladd
  6381  0C99  0873               	movf	___fladd@b+1,w
  6382  0C9A  00A1               	movwf	??___fladd+1
  6383  0C9B  0874               	movf	___fladd@b+2,w
  6384  0C9C  00A2               	movwf	??___fladd+2
  6385  0C9D  0875               	movf	___fladd@b+3,w
  6386  0C9E  00A3               	movwf	??___fladd+3
  6387  0C9F  3001               	movlw	1
  6388  0CA0  00A4               	movwf	??___fladd+4
  6389  0CA1                     u2525:
  6390  0CA1  0D23               	rlf	??___fladd+3,w
  6391  0CA2  0CA3               	rrf	??___fladd+3,f
  6392  0CA3  0CA2               	rrf	??___fladd+2,f
  6393  0CA4  0CA1               	rrf	??___fladd+1,f
  6394  0CA5  0CA0               	rrf	??___fladd,f
  6395  0CA6                     u2520:
  6396  0CA6  0BA4               	decfsz	??___fladd+4,f
  6397  0CA7  2CA1               	goto	u2525
  6398  0CA8  0823               	movf	??___fladd+3,w
  6399  0CA9  00F5               	movwf	___fladd@b+3
  6400  0CAA  0822               	movf	??___fladd+2,w
  6401  0CAB  00F4               	movwf	___fladd@b+2
  6402  0CAC  0821               	movf	??___fladd+1,w
  6403  0CAD  00F3               	movwf	___fladd@b+1
  6404  0CAE  0820               	movf	??___fladd,w
  6405  0CAF  00F2               	movwf	___fladd@b
  6406  0CB0  0A2A               	incf	___fladd@bexp,w
  6407  0CB1  1903               	btfsc	3,2
  6408  0CB2  2CB4               	goto	u2531
  6409  0CB3  2CB5               	goto	u2530
  6410  0CB4                     u2531:
  6411  0CB4  2CB9               	goto	l654
  6412  0CB5                     u2530:
  6413  0CB5                     l2147:
  6414  0CB5  3001               	movlw	1
  6415  0CB6  00A0               	movwf	??___fladd
  6416  0CB7  0820               	movf	??___fladd,w
  6417  0CB8  07AA               	addwf	___fladd@bexp,f
  6418  0CB9                     l654:
  6419  0CB9  0A2A               	incf	___fladd@bexp,w
  6420  0CBA  1903               	btfsc	3,2
  6421  0CBB  2CBD               	goto	u2541
  6422  0CBC  2CBE               	goto	u2540
  6423  0CBD                     u2541:
  6424  0CBD  2CC3               	goto	l2151
  6425  0CBE                     u2540:
  6426  0CBE                     l2149:
  6427  0CBE  082A               	movf	___fladd@bexp,w
  6428  0CBF  1D03               	btfss	3,2
  6429  0CC0  2CC2               	goto	u2551
  6430  0CC1  2CC3               	goto	u2550
  6431  0CC2                     u2551:
  6432  0CC2  2CD1               	goto	l2157
  6433  0CC3                     u2550:
  6434  0CC3                     l2151:
  6435  0CC3  3000               	movlw	0
  6436  0CC4  00F5               	movwf	___fladd@b+3
  6437  0CC5  3000               	movlw	0
  6438  0CC6  00F4               	movwf	___fladd@b+2
  6439  0CC7  3000               	movlw	0
  6440  0CC8  00F3               	movwf	___fladd@b+1
  6441  0CC9  3000               	movlw	0
  6442  0CCA  00F2               	movwf	___fladd@b
  6443  0CCB                     l2153:
  6444  0CCB  082A               	movf	___fladd@bexp,w
  6445  0CCC  1D03               	btfss	3,2
  6446  0CCD  2CCF               	goto	u2561
  6447  0CCE  2CD0               	goto	u2560
  6448  0CCF                     u2561:
  6449  0CCF  2CD1               	goto	l2157
  6450  0CD0                     u2560:
  6451  0CD0                     l2155:
  6452  0CD0  01A8               	clrf	___fladd@signs
  6453  0CD1                     l2157:
  6454  0CD1  1C2A               	btfss	___fladd@bexp,0
  6455  0CD2  2CD4               	goto	u2571
  6456  0CD3  2CD5               	goto	u2570
  6457  0CD4                     u2571:
  6458  0CD4  2CD7               	goto	l2161
  6459  0CD5                     u2570:
  6460  0CD5                     l2159:
  6461  0CD5  17F4               	bsf	___fladd@b+2,7
  6462  0CD6  2CDB               	goto	l662
  6463  0CD7                     l2161:
  6464  0CD7  307F               	movlw	127
  6465  0CD8  00A0               	movwf	??___fladd
  6466  0CD9  0820               	movf	??___fladd,w
  6467  0CDA  05F4               	andwf	___fladd@b+2,f
  6468  0CDB                     l662:
  6469  0CDB  082A               	movf	___fladd@bexp,w
  6470  0CDC  00A0               	movwf	??___fladd
  6471  0CDD  1003               	clrc
  6472  0CDE  0C20               	rrf	??___fladd,w
  6473  0CDF  00A1               	movwf	??___fladd+1
  6474  0CE0  0821               	movf	??___fladd+1,w
  6475  0CE1  00F5               	movwf	___fladd@b+3
  6476  0CE2                     l2163:
  6477  0CE2  1FA8               	btfss	___fladd@signs,7
  6478  0CE3  2CE5               	goto	u2581
  6479  0CE4  2CE6               	goto	u2580
  6480  0CE5                     u2581:
  6481  0CE5  2CE7               	goto	l663
  6482  0CE6                     u2580:
  6483  0CE6                     l2165:
  6484  0CE6  17F5               	bsf	___fladd@b+3,7
  6485  0CE7                     l663:
  6486  0CE7                     l633:
  6487  0CE7  0008               	return
  6488  0CE8                     __end_of___fladd:
  6489                           
  6490                           	psect	text24
  6491  0480                     __ptext24:	
  6492 ;; *************** function ___flmul *****************
  6493 ;; Defined at:
  6494 ;;		line 8 in file "D:\PrograMicros\pic\sources\c90\common\sprcmul.c"
  6495 ;; Parameters:    Size  Location     Type
  6496 ;;  b               4   49[BANK0 ] unsigned char 
  6497 ;;  a               4   53[BANK0 ] unsigned char 
  6498 ;; Auto vars:     Size  Location     Type
  6499 ;;  prod            4   69[BANK0 ] struct .
  6500 ;;  grs             4   64[BANK0 ] unsigned long 
  6501 ;;  temp            2   73[BANK0 ] struct .
  6502 ;;  bexp            1   68[BANK0 ] unsigned char 
  6503 ;;  aexp            1   63[BANK0 ] unsigned char 
  6504 ;;  sign            1   62[BANK0 ] unsigned char 
  6505 ;; Return value:  Size  Location     Type
  6506 ;;                  4   49[BANK0 ] unsigned char 
  6507 ;; Registers used:
  6508 ;;		wreg, status,2, status,0, btemp+1, pclath, cstack
  6509 ;; Tracked objects:
  6510 ;;		On entry : 0/0
  6511 ;;		On exit  : 0/0
  6512 ;;		Unchanged: 0/0
  6513 ;; Data sizes:     COMMON   BANK0   BANK1   BANK3   BANK2
  6514 ;;      Params:         0       8       0       0       0
  6515 ;;      Locals:         0      13       0       0       0
  6516 ;;      Temps:          0       5       0       0       0
  6517 ;;      Totals:         0      26       0       0       0
  6518 ;;Total ram usage:       26 bytes
  6519 ;; Hardware stack levels used:    1
  6520 ;; Hardware stack levels required when called:    2
  6521 ;; This function calls:
  6522 ;;		__Umul8_16
  6523 ;; This function is called by:
  6524 ;;		_main
  6525 ;;		_ADC_convert
  6526 ;; This function uses a non-reentrant model
  6527 ;;
  6528                           
  6529                           
  6530                           ;psect for function ___flmul
  6531  0480                     ___flmul:
  6532  0480                     l3159:	
  6533                           ;incstack = 0
  6534                           ; Regs used in ___flmul: [wreg+status,2+status,0+btemp+1+pclath+cstack]
  6535                           
  6536  0480  1283               	bcf	3,5	;RP0=0, select bank0
  6537  0481  1303               	bcf	3,6	;RP1=0, select bank0
  6538  0482  0854               	movf	___flmul@b+3,w
  6539  0483  3980               	andlw	128
  6540  0484  00D9               	movwf	??___flmul
  6541  0485  0859               	movf	??___flmul,w
  6542  0486  00DE               	movwf	___flmul@sign
  6543  0487                     l3161:
  6544  0487  0854               	movf	___flmul@b+3,w
  6545  0488  00D9               	movwf	??___flmul
  6546  0489  0759               	addwf	??___flmul,w
  6547  048A  00DA               	movwf	??___flmul+1
  6548  048B  085A               	movf	??___flmul+1,w
  6549  048C  00E4               	movwf	___flmul@bexp
  6550  048D                     l3163:
  6551  048D  1FD3               	btfss	___flmul@b+2,7
  6552  048E  2C90               	goto	u4381
  6553  048F  2C91               	goto	u4380
  6554  0490                     u4381:
  6555  0490  2C92               	goto	l3167
  6556  0491                     u4380:
  6557  0491                     l3165:
  6558  0491  1464               	bsf	___flmul@bexp,0
  6559  0492                     l3167:
  6560  0492  0864               	movf	___flmul@bexp,w
  6561  0493  1903               	btfsc	3,2
  6562  0494  2C96               	goto	u4391
  6563  0495  2C97               	goto	u4390
  6564  0496                     u4391:
  6565  0496  2CA6               	goto	l3175
  6566  0497                     u4390:
  6567  0497                     l3169:
  6568  0497  0A64               	incf	___flmul@bexp,w
  6569  0498  1D03               	btfss	3,2
  6570  0499  2C9B               	goto	u4401
  6571  049A  2C9C               	goto	u4400
  6572  049B                     u4401:
  6573  049B  2CA4               	goto	l3173
  6574  049C                     u4400:
  6575  049C                     l3171:
  6576  049C  3000               	movlw	0
  6577  049D  00D4               	movwf	___flmul@b+3
  6578  049E  3000               	movlw	0
  6579  049F  00D3               	movwf	___flmul@b+2
  6580  04A0  3000               	movlw	0
  6581  04A1  00D2               	movwf	___flmul@b+1
  6582  04A2  3000               	movlw	0
  6583  04A3  00D1               	movwf	___flmul@b
  6584  04A4                     l3173:
  6585  04A4  17D3               	bsf	___flmul@b+2,7
  6586  04A5  2CAE               	goto	l3177
  6587  04A6                     l3175:
  6588  04A6  3000               	movlw	0
  6589  04A7  00D4               	movwf	___flmul@b+3
  6590  04A8  3000               	movlw	0
  6591  04A9  00D3               	movwf	___flmul@b+2
  6592  04AA  3000               	movlw	0
  6593  04AB  00D2               	movwf	___flmul@b+1
  6594  04AC  3000               	movlw	0
  6595  04AD  00D1               	movwf	___flmul@b
  6596  04AE                     l3177:
  6597  04AE  0858               	movf	___flmul@a+3,w
  6598  04AF  3980               	andlw	128
  6599  04B0  00D9               	movwf	??___flmul
  6600  04B1  0859               	movf	??___flmul,w
  6601  04B2  06DE               	xorwf	___flmul@sign,f
  6602  04B3                     l3179:
  6603  04B3  0858               	movf	___flmul@a+3,w
  6604  04B4  00D9               	movwf	??___flmul
  6605  04B5  0759               	addwf	??___flmul,w
  6606  04B6  00DA               	movwf	??___flmul+1
  6607  04B7  085A               	movf	??___flmul+1,w
  6608  04B8  00DF               	movwf	___flmul@aexp
  6609  04B9                     l3181:
  6610  04B9  1FD7               	btfss	___flmul@a+2,7
  6611  04BA  2CBC               	goto	u4411
  6612  04BB  2CBD               	goto	u4410
  6613  04BC                     u4411:
  6614  04BC  2CBE               	goto	l3185
  6615  04BD                     u4410:
  6616  04BD                     l3183:
  6617  04BD  145F               	bsf	___flmul@aexp,0
  6618  04BE                     l3185:
  6619  04BE  085F               	movf	___flmul@aexp,w
  6620  04BF  1903               	btfsc	3,2
  6621  04C0  2CC2               	goto	u4421
  6622  04C1  2CC3               	goto	u4420
  6623  04C2                     u4421:
  6624  04C2  2CD2               	goto	l3193
  6625  04C3                     u4420:
  6626  04C3                     l3187:
  6627  04C3  0A5F               	incf	___flmul@aexp,w
  6628  04C4  1D03               	btfss	3,2
  6629  04C5  2CC7               	goto	u4431
  6630  04C6  2CC8               	goto	u4430
  6631  04C7                     u4431:
  6632  04C7  2CD0               	goto	l3191
  6633  04C8                     u4430:
  6634  04C8                     l3189:
  6635  04C8  3000               	movlw	0
  6636  04C9  00D8               	movwf	___flmul@a+3
  6637  04CA  3000               	movlw	0
  6638  04CB  00D7               	movwf	___flmul@a+2
  6639  04CC  3000               	movlw	0
  6640  04CD  00D6               	movwf	___flmul@a+1
  6641  04CE  3000               	movlw	0
  6642  04CF  00D5               	movwf	___flmul@a
  6643  04D0                     l3191:
  6644  04D0  17D7               	bsf	___flmul@a+2,7
  6645  04D1  2CDA               	goto	l3195
  6646  04D2                     l3193:
  6647  04D2  3000               	movlw	0
  6648  04D3  00D8               	movwf	___flmul@a+3
  6649  04D4  3000               	movlw	0
  6650  04D5  00D7               	movwf	___flmul@a+2
  6651  04D6  3000               	movlw	0
  6652  04D7  00D6               	movwf	___flmul@a+1
  6653  04D8  3000               	movlw	0
  6654  04D9  00D5               	movwf	___flmul@a
  6655  04DA                     l3195:
  6656  04DA  085F               	movf	___flmul@aexp,w
  6657  04DB  1903               	btfsc	3,2
  6658  04DC  2CDE               	goto	u4441
  6659  04DD  2CDF               	goto	u4440
  6660  04DE                     u4441:
  6661  04DE  2CE4               	goto	l3199
  6662  04DF                     u4440:
  6663  04DF                     l3197:
  6664  04DF  0864               	movf	___flmul@bexp,w
  6665  04E0  1D03               	btfss	3,2
  6666  04E1  2CE3               	goto	u4451
  6667  04E2  2CE4               	goto	u4450
  6668  04E3                     u4451:
  6669  04E3  2CED               	goto	l3203
  6670  04E4                     u4450:
  6671  04E4                     l3199:
  6672  04E4  3000               	movlw	0
  6673  04E5  00D4               	movwf	?___flmul+3
  6674  04E6  3000               	movlw	0
  6675  04E7  00D3               	movwf	?___flmul+2
  6676  04E8  3000               	movlw	0
  6677  04E9  00D2               	movwf	?___flmul+1
  6678  04EA  3000               	movlw	0
  6679  04EB  00D1               	movwf	?___flmul
  6680  04EC  2FE0               	goto	l716
  6681  04ED                     l3203:
  6682  04ED  0851               	movf	___flmul@b,w
  6683  04EE  00D9               	movwf	??___flmul
  6684  04EF  0859               	movf	??___flmul,w
  6685  04F0  00F2               	movwf	__Umul8_16@multiplicand
  6686  04F1  0857               	movf	___flmul@a+2,w
  6687  04F2  160A  118A  231A  120A  118A  	fcall	__Umul8_16
  6688  04F7  0873               	movf	?__Umul8_16+1,w
  6689  04F8  1283               	bcf	3,5	;RP0=0, select bank0
  6690  04F9  1303               	bcf	3,6	;RP1=0, select bank0
  6691  04FA  00EA               	movwf	___flmul@temp+1
  6692  04FB  0872               	movf	?__Umul8_16,w
  6693  04FC  00E9               	movwf	___flmul@temp
  6694  04FD                     l3205:
  6695  04FD  0869               	movf	___flmul@temp,w
  6696  04FE  00D9               	movwf	??___flmul
  6697  04FF  01DA               	clrf	??___flmul+1
  6698  0500  01DB               	clrf	??___flmul+2
  6699  0501  01DC               	clrf	??___flmul+3
  6700  0502  085C               	movf	??___flmul+3,w
  6701  0503  00E3               	movwf	___flmul@grs+3
  6702  0504  085B               	movf	??___flmul+2,w
  6703  0505  00E2               	movwf	___flmul@grs+2
  6704  0506  085A               	movf	??___flmul+1,w
  6705  0507  00E1               	movwf	___flmul@grs+1
  6706  0508  0859               	movf	??___flmul,w
  6707  0509  00E0               	movwf	___flmul@grs
  6708  050A                     l3207:
  6709  050A  086A               	movf	___flmul@temp+1,w
  6710  050B  00D9               	movwf	??___flmul
  6711  050C  01DA               	clrf	??___flmul+1
  6712  050D  01DB               	clrf	??___flmul+2
  6713  050E  01DC               	clrf	??___flmul+3
  6714  050F  085C               	movf	??___flmul+3,w
  6715  0510  00E8               	movwf	___flmul@prod+3
  6716  0511  085B               	movf	??___flmul+2,w
  6717  0512  00E7               	movwf	___flmul@prod+2
  6718  0513  085A               	movf	??___flmul+1,w
  6719  0514  00E6               	movwf	___flmul@prod+1
  6720  0515  0859               	movf	??___flmul,w
  6721  0516  00E5               	movwf	___flmul@prod
  6722  0517  0852               	movf	___flmul@b+1,w
  6723  0518  00D9               	movwf	??___flmul
  6724  0519  0859               	movf	??___flmul,w
  6725  051A  00F2               	movwf	__Umul8_16@multiplicand
  6726  051B  0856               	movf	___flmul@a+1,w
  6727  051C  160A  118A  231A  120A  118A  	fcall	__Umul8_16
  6728  0521  0873               	movf	?__Umul8_16+1,w
  6729  0522  1283               	bcf	3,5	;RP0=0, select bank0
  6730  0523  1303               	bcf	3,6	;RP1=0, select bank0
  6731  0524  00EA               	movwf	___flmul@temp+1
  6732  0525  0872               	movf	?__Umul8_16,w
  6733  0526  00E9               	movwf	___flmul@temp
  6734  0527                     l3209:
  6735  0527  0869               	movf	___flmul@temp,w
  6736  0528  00D9               	movwf	??___flmul
  6737  0529  01DA               	clrf	??___flmul+1
  6738  052A  01DB               	clrf	??___flmul+2
  6739  052B  01DC               	clrf	??___flmul+3
  6740  052C  0859               	movf	??___flmul,w
  6741  052D  07E0               	addwf	___flmul@grs,f
  6742  052E  085A               	movf	??___flmul+1,w
  6743  052F  1103               	clrz
  6744  0530  1803               	skipnc
  6745  0531  3E01               	addlw	1
  6746  0532  1903               	skipnz
  6747  0533  2D35               	goto	u4461
  6748  0534  07E1               	addwf	___flmul@grs+1,f
  6749  0535                     u4461:
  6750  0535  085B               	movf	??___flmul+2,w
  6751  0536  1103               	clrz
  6752  0537  1803               	skipnc
  6753  0538  3E01               	addlw	1
  6754  0539  1903               	skipnz
  6755  053A  2D3C               	goto	u4462
  6756  053B  07E2               	addwf	___flmul@grs+2,f
  6757  053C                     u4462:
  6758  053C  085C               	movf	??___flmul+3,w
  6759  053D  1103               	clrz
  6760  053E  1803               	skipnc
  6761  053F  3E01               	addlw	1
  6762  0540  1903               	skipnz
  6763  0541  2D43               	goto	u4463
  6764  0542  07E3               	addwf	___flmul@grs+3,f
  6765  0543                     u4463:
  6766  0543                     l3211:
  6767  0543  086A               	movf	___flmul@temp+1,w
  6768  0544  00D9               	movwf	??___flmul
  6769  0545  01DA               	clrf	??___flmul+1
  6770  0546  01DB               	clrf	??___flmul+2
  6771  0547  01DC               	clrf	??___flmul+3
  6772  0548  0859               	movf	??___flmul,w
  6773  0549  07E5               	addwf	___flmul@prod,f
  6774  054A  085A               	movf	??___flmul+1,w
  6775  054B  1103               	clrz
  6776  054C  1803               	skipnc
  6777  054D  3E01               	addlw	1
  6778  054E  1903               	skipnz
  6779  054F  2D51               	goto	u4471
  6780  0550  07E6               	addwf	___flmul@prod+1,f
  6781  0551                     u4471:
  6782  0551  085B               	movf	??___flmul+2,w
  6783  0552  1103               	clrz
  6784  0553  1803               	skipnc
  6785  0554  3E01               	addlw	1
  6786  0555  1903               	skipnz
  6787  0556  2D58               	goto	u4472
  6788  0557  07E7               	addwf	___flmul@prod+2,f
  6789  0558                     u4472:
  6790  0558  085C               	movf	??___flmul+3,w
  6791  0559  1103               	clrz
  6792  055A  1803               	skipnc
  6793  055B  3E01               	addlw	1
  6794  055C  1903               	skipnz
  6795  055D  2D5F               	goto	u4473
  6796  055E  07E8               	addwf	___flmul@prod+3,f
  6797  055F                     u4473:
  6798  055F  0853               	movf	___flmul@b+2,w
  6799  0560  00D9               	movwf	??___flmul
  6800  0561  0859               	movf	??___flmul,w
  6801  0562  00F2               	movwf	__Umul8_16@multiplicand
  6802  0563  0855               	movf	___flmul@a,w
  6803  0564  160A  118A  231A  120A  118A  	fcall	__Umul8_16
  6804  0569  0873               	movf	?__Umul8_16+1,w
  6805  056A  1283               	bcf	3,5	;RP0=0, select bank0
  6806  056B  1303               	bcf	3,6	;RP1=0, select bank0
  6807  056C  00EA               	movwf	___flmul@temp+1
  6808  056D  0872               	movf	?__Umul8_16,w
  6809  056E  00E9               	movwf	___flmul@temp
  6810  056F                     l3213:
  6811  056F  0869               	movf	___flmul@temp,w
  6812  0570  00D9               	movwf	??___flmul
  6813  0571  01DA               	clrf	??___flmul+1
  6814  0572  01DB               	clrf	??___flmul+2
  6815  0573  01DC               	clrf	??___flmul+3
  6816  0574  0859               	movf	??___flmul,w
  6817  0575  07E0               	addwf	___flmul@grs,f
  6818  0576  085A               	movf	??___flmul+1,w
  6819  0577  1103               	clrz
  6820  0578  1803               	skipnc
  6821  0579  3E01               	addlw	1
  6822  057A  1903               	skipnz
  6823  057B  2D7D               	goto	u4481
  6824  057C  07E1               	addwf	___flmul@grs+1,f
  6825  057D                     u4481:
  6826  057D  085B               	movf	??___flmul+2,w
  6827  057E  1103               	clrz
  6828  057F  1803               	skipnc
  6829  0580  3E01               	addlw	1
  6830  0581  1903               	skipnz
  6831  0582  2D84               	goto	u4482
  6832  0583  07E2               	addwf	___flmul@grs+2,f
  6833  0584                     u4482:
  6834  0584  085C               	movf	??___flmul+3,w
  6835  0585  1103               	clrz
  6836  0586  1803               	skipnc
  6837  0587  3E01               	addlw	1
  6838  0588  1903               	skipnz
  6839  0589  2D8B               	goto	u4483
  6840  058A  07E3               	addwf	___flmul@grs+3,f
  6841  058B                     u4483:
  6842  058B                     l3215:
  6843  058B  086A               	movf	___flmul@temp+1,w
  6844  058C  00D9               	movwf	??___flmul
  6845  058D  01DA               	clrf	??___flmul+1
  6846  058E  01DB               	clrf	??___flmul+2
  6847  058F  01DC               	clrf	??___flmul+3
  6848  0590  0859               	movf	??___flmul,w
  6849  0591  07E5               	addwf	___flmul@prod,f
  6850  0592  085A               	movf	??___flmul+1,w
  6851  0593  1103               	clrz
  6852  0594  1803               	skipnc
  6853  0595  3E01               	addlw	1
  6854  0596  1903               	skipnz
  6855  0597  2D99               	goto	u4491
  6856  0598  07E6               	addwf	___flmul@prod+1,f
  6857  0599                     u4491:
  6858  0599  085B               	movf	??___flmul+2,w
  6859  059A  1103               	clrz
  6860  059B  1803               	skipnc
  6861  059C  3E01               	addlw	1
  6862  059D  1903               	skipnz
  6863  059E  2DA0               	goto	u4492
  6864  059F  07E7               	addwf	___flmul@prod+2,f
  6865  05A0                     u4492:
  6866  05A0  085C               	movf	??___flmul+3,w
  6867  05A1  1103               	clrz
  6868  05A2  1803               	skipnc
  6869  05A3  3E01               	addlw	1
  6870  05A4  1903               	skipnz
  6871  05A5  2DA7               	goto	u4493
  6872  05A6  07E8               	addwf	___flmul@prod+3,f
  6873  05A7                     u4493:
  6874  05A7                     l3217:
  6875  05A7  3008               	movlw	8
  6876  05A8  00D9               	movwf	??___flmul
  6877  05A9                     u4505:
  6878  05A9  1003               	clrc
  6879  05AA  0DE0               	rlf	___flmul@grs,f
  6880  05AB  0DE1               	rlf	___flmul@grs+1,f
  6881  05AC  0DE2               	rlf	___flmul@grs+2,f
  6882  05AD  0DE3               	rlf	___flmul@grs+3,f
  6883  05AE  0BD9               	decfsz	??___flmul,f
  6884  05AF  2DA9               	goto	u4505
  6885  05B0                     l3219:
  6886  05B0  0852               	movf	___flmul@b+1,w
  6887  05B1  00D9               	movwf	??___flmul
  6888  05B2  0859               	movf	??___flmul,w
  6889  05B3  00F2               	movwf	__Umul8_16@multiplicand
  6890  05B4  0855               	movf	___flmul@a,w
  6891  05B5  160A  118A  231A  120A  118A  	fcall	__Umul8_16
  6892  05BA  0873               	movf	?__Umul8_16+1,w
  6893  05BB  1283               	bcf	3,5	;RP0=0, select bank0
  6894  05BC  1303               	bcf	3,6	;RP1=0, select bank0
  6895  05BD  00EA               	movwf	___flmul@temp+1
  6896  05BE  0872               	movf	?__Umul8_16,w
  6897  05BF  00E9               	movwf	___flmul@temp
  6898  05C0                     l3221:
  6899  05C0  0869               	movf	___flmul@temp,w
  6900  05C1  00D9               	movwf	??___flmul
  6901  05C2  086A               	movf	___flmul@temp+1,w
  6902  05C3  00DA               	movwf	??___flmul+1
  6903  05C4  01DB               	clrf	??___flmul+2
  6904  05C5  01DC               	clrf	??___flmul+3
  6905  05C6  0859               	movf	??___flmul,w
  6906  05C7  07E0               	addwf	___flmul@grs,f
  6907  05C8  085A               	movf	??___flmul+1,w
  6908  05C9  1103               	clrz
  6909  05CA  1803               	skipnc
  6910  05CB  3E01               	addlw	1
  6911  05CC  1903               	skipnz
  6912  05CD  2DCF               	goto	u4511
  6913  05CE  07E1               	addwf	___flmul@grs+1,f
  6914  05CF                     u4511:
  6915  05CF  085B               	movf	??___flmul+2,w
  6916  05D0  1103               	clrz
  6917  05D1  1803               	skipnc
  6918  05D2  3E01               	addlw	1
  6919  05D3  1903               	skipnz
  6920  05D4  2DD6               	goto	u4512
  6921  05D5  07E2               	addwf	___flmul@grs+2,f
  6922  05D6                     u4512:
  6923  05D6  085C               	movf	??___flmul+3,w
  6924  05D7  1103               	clrz
  6925  05D8  1803               	skipnc
  6926  05D9  3E01               	addlw	1
  6927  05DA  1903               	skipnz
  6928  05DB  2DDD               	goto	u4513
  6929  05DC  07E3               	addwf	___flmul@grs+3,f
  6930  05DD                     u4513:
  6931  05DD                     l3223:
  6932  05DD  0851               	movf	___flmul@b,w
  6933  05DE  00D9               	movwf	??___flmul
  6934  05DF  0859               	movf	??___flmul,w
  6935  05E0  00F2               	movwf	__Umul8_16@multiplicand
  6936  05E1  0856               	movf	___flmul@a+1,w
  6937  05E2  160A  118A  231A  120A  118A  	fcall	__Umul8_16
  6938  05E7  0873               	movf	?__Umul8_16+1,w
  6939  05E8  1283               	bcf	3,5	;RP0=0, select bank0
  6940  05E9  1303               	bcf	3,6	;RP1=0, select bank0
  6941  05EA  00EA               	movwf	___flmul@temp+1
  6942  05EB  0872               	movf	?__Umul8_16,w
  6943  05EC  00E9               	movwf	___flmul@temp
  6944  05ED                     l3225:
  6945  05ED  0869               	movf	___flmul@temp,w
  6946  05EE  00D9               	movwf	??___flmul
  6947  05EF  086A               	movf	___flmul@temp+1,w
  6948  05F0  00DA               	movwf	??___flmul+1
  6949  05F1  01DB               	clrf	??___flmul+2
  6950  05F2  01DC               	clrf	??___flmul+3
  6951  05F3  0859               	movf	??___flmul,w
  6952  05F4  07E0               	addwf	___flmul@grs,f
  6953  05F5  085A               	movf	??___flmul+1,w
  6954  05F6  1103               	clrz
  6955  05F7  1803               	skipnc
  6956  05F8  3E01               	addlw	1
  6957  05F9  1903               	skipnz
  6958  05FA  2DFC               	goto	u4521
  6959  05FB  07E1               	addwf	___flmul@grs+1,f
  6960  05FC                     u4521:
  6961  05FC  085B               	movf	??___flmul+2,w
  6962  05FD  1103               	clrz
  6963  05FE  1803               	skipnc
  6964  05FF  3E01               	addlw	1
  6965  0600  1903               	skipnz
  6966  0601  2E03               	goto	u4522
  6967  0602  07E2               	addwf	___flmul@grs+2,f
  6968  0603                     u4522:
  6969  0603  085C               	movf	??___flmul+3,w
  6970  0604  1103               	clrz
  6971  0605  1803               	skipnc
  6972  0606  3E01               	addlw	1
  6973  0607  1903               	skipnz
  6974  0608  2E0A               	goto	u4523
  6975  0609  07E3               	addwf	___flmul@grs+3,f
  6976  060A                     u4523:
  6977  060A                     l3227:
  6978  060A  3008               	movlw	8
  6979  060B  00D9               	movwf	??___flmul
  6980  060C                     u4535:
  6981  060C  1003               	clrc
  6982  060D  0DE0               	rlf	___flmul@grs,f
  6983  060E  0DE1               	rlf	___flmul@grs+1,f
  6984  060F  0DE2               	rlf	___flmul@grs+2,f
  6985  0610  0DE3               	rlf	___flmul@grs+3,f
  6986  0611  0BD9               	decfsz	??___flmul,f
  6987  0612  2E0C               	goto	u4535
  6988  0613  0851               	movf	___flmul@b,w
  6989  0614  00D9               	movwf	??___flmul
  6990  0615  0859               	movf	??___flmul,w
  6991  0616  00F2               	movwf	__Umul8_16@multiplicand
  6992  0617  0855               	movf	___flmul@a,w
  6993  0618  160A  118A  231A  120A  118A  	fcall	__Umul8_16
  6994  061D  0873               	movf	?__Umul8_16+1,w
  6995  061E  1283               	bcf	3,5	;RP0=0, select bank0
  6996  061F  1303               	bcf	3,6	;RP1=0, select bank0
  6997  0620  00EA               	movwf	___flmul@temp+1
  6998  0621  0872               	movf	?__Umul8_16,w
  6999  0622  00E9               	movwf	___flmul@temp
  7000  0623                     l3229:
  7001  0623  0869               	movf	___flmul@temp,w
  7002  0624  00D9               	movwf	??___flmul
  7003  0625  086A               	movf	___flmul@temp+1,w
  7004  0626  00DA               	movwf	??___flmul+1
  7005  0627  01DB               	clrf	??___flmul+2
  7006  0628  01DC               	clrf	??___flmul+3
  7007  0629  0859               	movf	??___flmul,w
  7008  062A  07E0               	addwf	___flmul@grs,f
  7009  062B  085A               	movf	??___flmul+1,w
  7010  062C  1103               	clrz
  7011  062D  1803               	skipnc
  7012  062E  3E01               	addlw	1
  7013  062F  1903               	skipnz
  7014  0630  2E32               	goto	u4541
  7015  0631  07E1               	addwf	___flmul@grs+1,f
  7016  0632                     u4541:
  7017  0632  085B               	movf	??___flmul+2,w
  7018  0633  1103               	clrz
  7019  0634  1803               	skipnc
  7020  0635  3E01               	addlw	1
  7021  0636  1903               	skipnz
  7022  0637  2E39               	goto	u4542
  7023  0638  07E2               	addwf	___flmul@grs+2,f
  7024  0639                     u4542:
  7025  0639  085C               	movf	??___flmul+3,w
  7026  063A  1103               	clrz
  7027  063B  1803               	skipnc
  7028  063C  3E01               	addlw	1
  7029  063D  1903               	skipnz
  7030  063E  2E40               	goto	u4543
  7031  063F  07E3               	addwf	___flmul@grs+3,f
  7032  0640                     u4543:
  7033  0640                     l3231:
  7034  0640  0852               	movf	___flmul@b+1,w
  7035  0641  00D9               	movwf	??___flmul
  7036  0642  0859               	movf	??___flmul,w
  7037  0643  00F2               	movwf	__Umul8_16@multiplicand
  7038  0644  0857               	movf	___flmul@a+2,w
  7039  0645  160A  118A  231A  120A  118A  	fcall	__Umul8_16
  7040  064A  0873               	movf	?__Umul8_16+1,w
  7041  064B  1283               	bcf	3,5	;RP0=0, select bank0
  7042  064C  1303               	bcf	3,6	;RP1=0, select bank0
  7043  064D  00EA               	movwf	___flmul@temp+1
  7044  064E  0872               	movf	?__Umul8_16,w
  7045  064F  00E9               	movwf	___flmul@temp
  7046  0650  0869               	movf	___flmul@temp,w
  7047  0651  00D9               	movwf	??___flmul
  7048  0652  086A               	movf	___flmul@temp+1,w
  7049  0653  00DA               	movwf	??___flmul+1
  7050  0654  01DB               	clrf	??___flmul+2
  7051  0655  01DC               	clrf	??___flmul+3
  7052  0656  0859               	movf	??___flmul,w
  7053  0657  07E5               	addwf	___flmul@prod,f
  7054  0658  085A               	movf	??___flmul+1,w
  7055  0659  1103               	clrz
  7056  065A  1803               	skipnc
  7057  065B  3E01               	addlw	1
  7058  065C  1903               	skipnz
  7059  065D  2E5F               	goto	u4551
  7060  065E  07E6               	addwf	___flmul@prod+1,f
  7061  065F                     u4551:
  7062  065F  085B               	movf	??___flmul+2,w
  7063  0660  1103               	clrz
  7064  0661  1803               	skipnc
  7065  0662  3E01               	addlw	1
  7066  0663  1903               	skipnz
  7067  0664  2E66               	goto	u4552
  7068  0665  07E7               	addwf	___flmul@prod+2,f
  7069  0666                     u4552:
  7070  0666  085C               	movf	??___flmul+3,w
  7071  0667  1103               	clrz
  7072  0668  1803               	skipnc
  7073  0669  3E01               	addlw	1
  7074  066A  1903               	skipnz
  7075  066B  2E6D               	goto	u4553
  7076  066C  07E8               	addwf	___flmul@prod+3,f
  7077  066D                     u4553:
  7078  066D                     l3233:
  7079  066D  0853               	movf	___flmul@b+2,w
  7080  066E  00D9               	movwf	??___flmul
  7081  066F  0859               	movf	??___flmul,w
  7082  0670  00F2               	movwf	__Umul8_16@multiplicand
  7083  0671  0856               	movf	___flmul@a+1,w
  7084  0672  160A  118A  231A  120A  118A  	fcall	__Umul8_16
  7085  0677  0873               	movf	?__Umul8_16+1,w
  7086  0678  1283               	bcf	3,5	;RP0=0, select bank0
  7087  0679  1303               	bcf	3,6	;RP1=0, select bank0
  7088  067A  00EA               	movwf	___flmul@temp+1
  7089  067B  0872               	movf	?__Umul8_16,w
  7090  067C  00E9               	movwf	___flmul@temp
  7091  067D                     l3235:
  7092  067D  0869               	movf	___flmul@temp,w
  7093  067E  00D9               	movwf	??___flmul
  7094  067F  086A               	movf	___flmul@temp+1,w
  7095  0680  00DA               	movwf	??___flmul+1
  7096  0681  01DB               	clrf	??___flmul+2
  7097  0682  01DC               	clrf	??___flmul+3
  7098  0683  0859               	movf	??___flmul,w
  7099  0684  07E5               	addwf	___flmul@prod,f
  7100  0685  085A               	movf	??___flmul+1,w
  7101  0686  1103               	clrz
  7102  0687  1803               	skipnc
  7103  0688  3E01               	addlw	1
  7104  0689  1903               	skipnz
  7105  068A  2E8C               	goto	u4561
  7106  068B  07E6               	addwf	___flmul@prod+1,f
  7107  068C                     u4561:
  7108  068C  085B               	movf	??___flmul+2,w
  7109  068D  1103               	clrz
  7110  068E  1803               	skipnc
  7111  068F  3E01               	addlw	1
  7112  0690  1903               	skipnz
  7113  0691  2E93               	goto	u4562
  7114  0692  07E7               	addwf	___flmul@prod+2,f
  7115  0693                     u4562:
  7116  0693  085C               	movf	??___flmul+3,w
  7117  0694  1103               	clrz
  7118  0695  1803               	skipnc
  7119  0696  3E01               	addlw	1
  7120  0697  1903               	skipnz
  7121  0698  2E9A               	goto	u4563
  7122  0699  07E8               	addwf	___flmul@prod+3,f
  7123  069A                     u4563:
  7124  069A  0853               	movf	___flmul@b+2,w
  7125  069B  00D9               	movwf	??___flmul
  7126  069C  0859               	movf	??___flmul,w
  7127  069D  00F2               	movwf	__Umul8_16@multiplicand
  7128  069E  0857               	movf	___flmul@a+2,w
  7129  069F  160A  118A  231A  120A  118A  	fcall	__Umul8_16
  7130  06A4  0873               	movf	?__Umul8_16+1,w
  7131  06A5  1283               	bcf	3,5	;RP0=0, select bank0
  7132  06A6  1303               	bcf	3,6	;RP1=0, select bank0
  7133  06A7  00EA               	movwf	___flmul@temp+1
  7134  06A8  0872               	movf	?__Umul8_16,w
  7135  06A9  00E9               	movwf	___flmul@temp
  7136  06AA                     l3237:
  7137  06AA  0869               	movf	___flmul@temp,w
  7138  06AB  00D9               	movwf	??___flmul
  7139  06AC  086A               	movf	___flmul@temp+1,w
  7140  06AD  00DA               	movwf	??___flmul+1
  7141  06AE  01DB               	clrf	??___flmul+2
  7142  06AF  01DC               	clrf	??___flmul+3
  7143  06B0  3008               	movlw	8
  7144  06B1                     u4575:
  7145  06B1  1003               	clrc
  7146  06B2  0DD9               	rlf	??___flmul,f
  7147  06B3  0DDA               	rlf	??___flmul+1,f
  7148  06B4  0DDB               	rlf	??___flmul+2,f
  7149  06B5  0DDC               	rlf	??___flmul+3,f
  7150  06B6                     u4570:
  7151  06B6  3EFF               	addlw	-1
  7152  06B7  1D03               	skipz
  7153  06B8  2EB1               	goto	u4575
  7154  06B9  0859               	movf	??___flmul,w
  7155  06BA  07E5               	addwf	___flmul@prod,f
  7156  06BB  085A               	movf	??___flmul+1,w
  7157  06BC  1103               	clrz
  7158  06BD  1803               	skipnc
  7159  06BE  3E01               	addlw	1
  7160  06BF  1903               	skipnz
  7161  06C0  2EC2               	goto	u4581
  7162  06C1  07E6               	addwf	___flmul@prod+1,f
  7163  06C2                     u4581:
  7164  06C2  085B               	movf	??___flmul+2,w
  7165  06C3  1103               	clrz
  7166  06C4  1803               	skipnc
  7167  06C5  3E01               	addlw	1
  7168  06C6  1903               	skipnz
  7169  06C7  2EC9               	goto	u4582
  7170  06C8  07E7               	addwf	___flmul@prod+2,f
  7171  06C9                     u4582:
  7172  06C9  085C               	movf	??___flmul+3,w
  7173  06CA  1103               	clrz
  7174  06CB  1803               	skipnc
  7175  06CC  3E01               	addlw	1
  7176  06CD  1903               	skipnz
  7177  06CE  2ED0               	goto	u4583
  7178  06CF  07E8               	addwf	___flmul@prod+3,f
  7179  06D0                     u4583:
  7180  06D0                     l3239:
  7181  06D0  0860               	movf	___flmul@grs,w
  7182  06D1  00D9               	movwf	??___flmul
  7183  06D2  0861               	movf	___flmul@grs+1,w
  7184  06D3  00DA               	movwf	??___flmul+1
  7185  06D4  0862               	movf	___flmul@grs+2,w
  7186  06D5  00DB               	movwf	??___flmul+2
  7187  06D6  0863               	movf	___flmul@grs+3,w
  7188  06D7  00DC               	movwf	??___flmul+3
  7189  06D8  3018               	movlw	24
  7190  06D9                     u4595:
  7191  06D9  1003               	clrc
  7192  06DA  0CDC               	rrf	??___flmul+3,f
  7193  06DB  0CDB               	rrf	??___flmul+2,f
  7194  06DC  0CDA               	rrf	??___flmul+1,f
  7195  06DD  0CD9               	rrf	??___flmul,f
  7196  06DE                     u4590:
  7197  06DE  3EFF               	addlw	-1
  7198  06DF  1D03               	skipz
  7199  06E0  2ED9               	goto	u4595
  7200  06E1  0859               	movf	??___flmul,w
  7201  06E2  07E5               	addwf	___flmul@prod,f
  7202  06E3  085A               	movf	??___flmul+1,w
  7203  06E4  1103               	clrz
  7204  06E5  1803               	skipnc
  7205  06E6  3E01               	addlw	1
  7206  06E7  1903               	skipnz
  7207  06E8  2EEA               	goto	u4601
  7208  06E9  07E6               	addwf	___flmul@prod+1,f
  7209  06EA                     u4601:
  7210  06EA  085B               	movf	??___flmul+2,w
  7211  06EB  1103               	clrz
  7212  06EC  1803               	skipnc
  7213  06ED  3E01               	addlw	1
  7214  06EE  1903               	skipnz
  7215  06EF  2EF1               	goto	u4602
  7216  06F0  07E7               	addwf	___flmul@prod+2,f
  7217  06F1                     u4602:
  7218  06F1  085C               	movf	??___flmul+3,w
  7219  06F2  1103               	clrz
  7220  06F3  1803               	skipnc
  7221  06F4  3E01               	addlw	1
  7222  06F5  1903               	skipnz
  7223  06F6  2EF8               	goto	u4603
  7224  06F7  07E8               	addwf	___flmul@prod+3,f
  7225  06F8                     u4603:
  7226  06F8                     l3241:
  7227  06F8  3008               	movlw	8
  7228  06F9  00D9               	movwf	??___flmul
  7229  06FA                     u4615:
  7230  06FA  1003               	clrc
  7231  06FB  0DE0               	rlf	___flmul@grs,f
  7232  06FC  0DE1               	rlf	___flmul@grs+1,f
  7233  06FD  0DE2               	rlf	___flmul@grs+2,f
  7234  06FE  0DE3               	rlf	___flmul@grs+3,f
  7235  06FF  0BD9               	decfsz	??___flmul,f
  7236  0700  2EFA               	goto	u4615
  7237  0701                     l3243:
  7238  0701  0864               	movf	___flmul@bexp,w
  7239  0702  075F               	addwf	___flmul@aexp,w
  7240  0703  00D9               	movwf	??___flmul
  7241  0704  01DA               	clrf	??___flmul+1
  7242  0705  0DDA               	rlf	??___flmul+1,f
  7243  0706  0859               	movf	??___flmul,w
  7244  0707  3E82               	addlw	130
  7245  0708  00E9               	movwf	___flmul@temp
  7246  0709  085A               	movf	??___flmul+1,w
  7247  070A  1803               	skipnc
  7248  070B  3E01               	addlw	1
  7249  070C  3EFF               	addlw	255
  7250  070D  00EA               	movwf	___flmul@temp+1
  7251  070E  2F2C               	goto	l3255
  7252  070F                     l3245:
  7253  070F  3001               	movlw	1
  7254  0710  00D9               	movwf	??___flmul
  7255  0711                     u4625:
  7256  0711  1003               	clrc
  7257  0712  0DE5               	rlf	___flmul@prod,f
  7258  0713  0DE6               	rlf	___flmul@prod+1,f
  7259  0714  0DE7               	rlf	___flmul@prod+2,f
  7260  0715  0DE8               	rlf	___flmul@prod+3,f
  7261  0716  0BD9               	decfsz	??___flmul,f
  7262  0717  2F11               	goto	u4625
  7263  0718                     l3247:
  7264  0718  1FE3               	btfss	___flmul@grs+3,7
  7265  0719  2F1B               	goto	u4631
  7266  071A  2F1C               	goto	u4630
  7267  071B                     u4631:
  7268  071B  2F1D               	goto	l3251
  7269  071C                     u4630:
  7270  071C                     l3249:
  7271  071C  1465               	bsf	___flmul@prod,0
  7272  071D                     l3251:
  7273  071D  3001               	movlw	1
  7274  071E  00D9               	movwf	??___flmul
  7275  071F                     u4645:
  7276  071F  1003               	clrc
  7277  0720  0DE0               	rlf	___flmul@grs,f
  7278  0721  0DE1               	rlf	___flmul@grs+1,f
  7279  0722  0DE2               	rlf	___flmul@grs+2,f
  7280  0723  0DE3               	rlf	___flmul@grs+3,f
  7281  0724  0BD9               	decfsz	??___flmul,f
  7282  0725  2F1F               	goto	u4645
  7283  0726                     l3253:
  7284  0726  30FF               	movlw	255
  7285  0727  07E9               	addwf	___flmul@temp,f
  7286  0728  1803               	skipnc
  7287  0729  0AEA               	incf	___flmul@temp+1,f
  7288  072A  30FF               	movlw	255
  7289  072B  07EA               	addwf	___flmul@temp+1,f
  7290  072C                     l3255:
  7291  072C  1FE7               	btfss	___flmul@prod+2,7
  7292  072D  2F2F               	goto	u4651
  7293  072E  2F30               	goto	u4650
  7294  072F                     u4651:
  7295  072F  2F0F               	goto	l3245
  7296  0730                     u4650:
  7297  0730                     l3257:
  7298  0730  01DF               	clrf	___flmul@aexp
  7299  0731                     l3259:
  7300  0731  1FE3               	btfss	___flmul@grs+3,7
  7301  0732  2F34               	goto	u4661
  7302  0733  2F35               	goto	u4660
  7303  0734                     u4661:
  7304  0734  2F51               	goto	l3267
  7305  0735                     u4660:
  7306  0735                     l3261:
  7307  0735  30FF               	movlw	255
  7308  0736  0560               	andwf	___flmul@grs,w
  7309  0737  00D9               	movwf	??___flmul
  7310  0738  30FF               	movlw	255
  7311  0739  0561               	andwf	___flmul@grs+1,w
  7312  073A  00DA               	movwf	??___flmul+1
  7313  073B  30FF               	movlw	255
  7314  073C  0562               	andwf	___flmul@grs+2,w
  7315  073D  00DB               	movwf	??___flmul+2
  7316  073E  307F               	movlw	127
  7317  073F  0563               	andwf	___flmul@grs+3,w
  7318  0740  00DC               	movwf	??___flmul+3
  7319  0741  085C               	movf	??___flmul+3,w
  7320  0742  045B               	iorwf	??___flmul+2,w
  7321  0743  045A               	iorwf	??___flmul+1,w
  7322  0744  0459               	iorwf	??___flmul,w
  7323  0745  1903               	skipnz
  7324  0746  2F48               	goto	u4671
  7325  0747  2F49               	goto	u4670
  7326  0748                     u4671:
  7327  0748  2F4C               	goto	l722
  7328  0749                     u4670:
  7329  0749                     l3263:
  7330  0749  01DF               	clrf	___flmul@aexp
  7331  074A  0ADF               	incf	___flmul@aexp,f
  7332  074B  2F51               	goto	l3267
  7333  074C                     l722:
  7334  074C  1C65               	btfss	___flmul@prod,0
  7335  074D  2F4F               	goto	u4681
  7336  074E  2F50               	goto	u4680
  7337  074F                     u4681:
  7338  074F  2F51               	goto	l3267
  7339  0750                     u4680:
  7340  0750  2F49               	goto	l3263
  7341  0751                     l3267:
  7342  0751  085F               	movf	___flmul@aexp,w
  7343  0752  1903               	btfsc	3,2
  7344  0753  2F55               	goto	u4691
  7345  0754  2F56               	goto	u4690
  7346  0755                     u4691:
  7347  0755  2F87               	goto	l3277
  7348  0756                     u4690:
  7349  0756                     l3269:
  7350  0756  3001               	movlw	1
  7351  0757  07E5               	addwf	___flmul@prod,f
  7352  0758  3000               	movlw	0
  7353  0759  1803               	skipnc
  7354  075A  3001               	movlw	1
  7355  075B  07E6               	addwf	___flmul@prod+1,f
  7356  075C  3000               	movlw	0
  7357  075D  1803               	skipnc
  7358  075E  3001               	movlw	1
  7359  075F  07E7               	addwf	___flmul@prod+2,f
  7360  0760  3000               	movlw	0
  7361  0761  1803               	skipnc
  7362  0762  3001               	movlw	1
  7363  0763  07E8               	addwf	___flmul@prod+3,f
  7364  0764                     l3271:
  7365  0764  1C68               	btfss	___flmul@prod+3,0
  7366  0765  2F67               	goto	u4701
  7367  0766  2F68               	goto	u4700
  7368  0767                     u4701:
  7369  0767  2F87               	goto	l3277
  7370  0768                     u4700:
  7371  0768                     l3273:
  7372  0768  0865               	movf	___flmul@prod,w
  7373  0769  00D9               	movwf	??___flmul
  7374  076A  0866               	movf	___flmul@prod+1,w
  7375  076B  00DA               	movwf	??___flmul+1
  7376  076C  0867               	movf	___flmul@prod+2,w
  7377  076D  00DB               	movwf	??___flmul+2
  7378  076E  0868               	movf	___flmul@prod+3,w
  7379  076F  00DC               	movwf	??___flmul+3
  7380  0770  3001               	movlw	1
  7381  0771  00DD               	movwf	??___flmul+4
  7382  0772                     u4715:
  7383  0772  0D5C               	rlf	??___flmul+3,w
  7384  0773  0CDC               	rrf	??___flmul+3,f
  7385  0774  0CDB               	rrf	??___flmul+2,f
  7386  0775  0CDA               	rrf	??___flmul+1,f
  7387  0776  0CD9               	rrf	??___flmul,f
  7388  0777                     u4710:
  7389  0777  0BDD               	decfsz	??___flmul+4,f
  7390  0778  2F72               	goto	u4715
  7391  0779  085C               	movf	??___flmul+3,w
  7392  077A  00E8               	movwf	___flmul@prod+3
  7393  077B  085B               	movf	??___flmul+2,w
  7394  077C  00E7               	movwf	___flmul@prod+2
  7395  077D  085A               	movf	??___flmul+1,w
  7396  077E  00E6               	movwf	___flmul@prod+1
  7397  077F  0859               	movf	??___flmul,w
  7398  0780  00E5               	movwf	___flmul@prod
  7399  0781                     l3275:
  7400  0781  3001               	movlw	1
  7401  0782  07E9               	addwf	___flmul@temp,f
  7402  0783  1803               	skipnc
  7403  0784  0AEA               	incf	___flmul@temp+1,f
  7404  0785  3000               	movlw	0
  7405  0786  07EA               	addwf	___flmul@temp+1,f
  7406  0787                     l3277:
  7407  0787  086A               	movf	___flmul@temp+1,w
  7408  0788  3A80               	xorlw	128
  7409  0789  00FF               	movwf	btemp+1
  7410  078A  3080               	movlw	128
  7411  078B  027F               	subwf	btemp+1,w
  7412  078C  1D03               	skipz
  7413  078D  2F90               	goto	u4725
  7414  078E  30FF               	movlw	255
  7415  078F  0269               	subwf	___flmul@temp,w
  7416  0790                     u4725:
  7417  0790  1C03               	skipc
  7418  0791  2F93               	goto	u4721
  7419  0792  2F94               	goto	u4720
  7420  0793                     u4721:
  7421  0793  2F9F               	goto	l3281
  7422  0794                     u4720:
  7423  0794                     l3279:
  7424  0794  307F               	movlw	127
  7425  0795  1283               	bcf	3,5	;RP0=0, select bank0
  7426  0796  1303               	bcf	3,6	;RP1=0, select bank0
  7427  0797  00E8               	movwf	___flmul@prod+3
  7428  0798  3080               	movlw	128
  7429  0799  00E7               	movwf	___flmul@prod+2
  7430  079A  3000               	movlw	0
  7431  079B  00E6               	movwf	___flmul@prod+1
  7432  079C  3000               	movlw	0
  7433  079D  00E5               	movwf	___flmul@prod
  7434  079E  2FD4               	goto	l728
  7435  079F                     l3281:
  7436  079F  1283               	bcf	3,5	;RP0=0, select bank0
  7437  07A0  1303               	bcf	3,6	;RP1=0, select bank0
  7438  07A1  086A               	movf	___flmul@temp+1,w
  7439  07A2  3A80               	xorlw	128
  7440  07A3  00FF               	movwf	btemp+1
  7441  07A4  3080               	movlw	128
  7442  07A5  027F               	subwf	btemp+1,w
  7443  07A6  1D03               	skipz
  7444  07A7  2FAA               	goto	u4735
  7445  07A8  3001               	movlw	1
  7446  07A9  0269               	subwf	___flmul@temp,w
  7447  07AA                     u4735:
  7448  07AA  1803               	skipnc
  7449  07AB  2FAD               	goto	u4731
  7450  07AC  2FAE               	goto	u4730
  7451  07AD                     u4731:
  7452  07AD  2FBA               	goto	l3287
  7453  07AE                     u4730:
  7454  07AE                     l3283:
  7455  07AE  3000               	movlw	0
  7456  07AF  1283               	bcf	3,5	;RP0=0, select bank0
  7457  07B0  1303               	bcf	3,6	;RP1=0, select bank0
  7458  07B1  00E8               	movwf	___flmul@prod+3
  7459  07B2  3000               	movlw	0
  7460  07B3  00E7               	movwf	___flmul@prod+2
  7461  07B4  3000               	movlw	0
  7462  07B5  00E6               	movwf	___flmul@prod+1
  7463  07B6  3000               	movlw	0
  7464  07B7  00E5               	movwf	___flmul@prod
  7465  07B8                     l3285:
  7466  07B8  01DE               	clrf	___flmul@sign
  7467  07B9  2FD4               	goto	l728
  7468  07BA                     l3287:
  7469  07BA  1283               	bcf	3,5	;RP0=0, select bank0
  7470  07BB  1303               	bcf	3,6	;RP1=0, select bank0
  7471  07BC  0869               	movf	___flmul@temp,w
  7472  07BD  00D9               	movwf	??___flmul
  7473  07BE  0859               	movf	??___flmul,w
  7474  07BF  00E4               	movwf	___flmul@bexp
  7475  07C0  30FF               	movlw	255
  7476  07C1  05E5               	andwf	___flmul@prod,f
  7477  07C2  30FF               	movlw	255
  7478  07C3  05E6               	andwf	___flmul@prod+1,f
  7479  07C4  307F               	movlw	127
  7480  07C5  05E7               	andwf	___flmul@prod+2,f
  7481  07C6  3000               	movlw	0
  7482  07C7  05E8               	andwf	___flmul@prod+3,f
  7483  07C8                     l3289:
  7484  07C8  1C64               	btfss	___flmul@bexp,0
  7485  07C9  2FCB               	goto	u4741
  7486  07CA  2FCC               	goto	u4740
  7487  07CB                     u4741:
  7488  07CB  2FCD               	goto	l3293
  7489  07CC                     u4740:
  7490  07CC                     l3291:
  7491  07CC  17E7               	bsf	___flmul@prod+2,7
  7492  07CD                     l3293:
  7493  07CD  0864               	movf	___flmul@bexp,w
  7494  07CE  00D9               	movwf	??___flmul
  7495  07CF  1003               	clrc
  7496  07D0  0C59               	rrf	??___flmul,w
  7497  07D1  00DA               	movwf	??___flmul+1
  7498  07D2  085A               	movf	??___flmul+1,w
  7499  07D3  00E8               	movwf	___flmul@prod+3
  7500  07D4                     l728:
  7501  07D4  085E               	movf	___flmul@sign,w
  7502  07D5  00D9               	movwf	??___flmul
  7503  07D6  0859               	movf	??___flmul,w
  7504  07D7  04E8               	iorwf	___flmul@prod+3,f
  7505  07D8                     l3295:
  7506  07D8  0868               	movf	___flmul@prod+3,w
  7507  07D9  00D4               	movwf	?___flmul+3
  7508  07DA  0867               	movf	___flmul@prod+2,w
  7509  07DB  00D3               	movwf	?___flmul+2
  7510  07DC  0866               	movf	___flmul@prod+1,w
  7511  07DD  00D2               	movwf	?___flmul+1
  7512  07DE  0865               	movf	___flmul@prod,w
  7513  07DF  00D1               	movwf	?___flmul
  7514  07E0                     l716:
  7515  07E0  0008               	return
  7516  07E1                     __end_of___flmul:
  7517                           
  7518                           	psect	text25
  7519  131A                     __ptext25:	
  7520 ;; *************** function __Umul8_16 *****************
  7521 ;; Defined at:
  7522 ;;		line 4 in file "D:\PrograMicros\pic\sources\c90\common\Umul8_16.c"
  7523 ;; Parameters:    Size  Location     Type
  7524 ;;  multiplier      1    wreg     unsigned char 
  7525 ;;  multiplicand    1    2[COMMON] unsigned char 
  7526 ;; Auto vars:     Size  Location     Type
  7527 ;;  multiplier      1    4[BANK0 ] unsigned char 
  7528 ;;  word_mpld       2    2[BANK0 ] unsigned int 
  7529 ;;  product         2    0[BANK0 ] unsigned int 
  7530 ;; Return value:  Size  Location     Type
  7531 ;;                  2    2[COMMON] unsigned int 
  7532 ;; Registers used:
  7533 ;;		wreg, status,2, status,0
  7534 ;; Tracked objects:
  7535 ;;		On entry : 0/0
  7536 ;;		On exit  : 0/0
  7537 ;;		Unchanged: 0/0
  7538 ;; Data sizes:     COMMON   BANK0   BANK1   BANK3   BANK2
  7539 ;;      Params:         2       0       0       0       0
  7540 ;;      Locals:         0       5       0       0       0
  7541 ;;      Temps:          2       0       0       0       0
  7542 ;;      Totals:         4       5       0       0       0
  7543 ;;Total ram usage:        9 bytes
  7544 ;; Hardware stack levels used:    1
  7545 ;; Hardware stack levels required when called:    1
  7546 ;; This function calls:
  7547 ;;		Nothing
  7548 ;; This function is called by:
  7549 ;;		___flmul
  7550 ;; This function uses a non-reentrant model
  7551 ;;
  7552                           
  7553                           
  7554                           ;psect for function __Umul8_16
  7555  131A                     __Umul8_16:
  7556                           
  7557                           ;incstack = 0
  7558                           ; Regs used in __Umul8_16: [wreg+status,2+status,0]
  7559                           ;__Umul8_16@multiplier stored from wreg
  7560  131A  1283               	bcf	3,5	;RP0=0, select bank0
  7561  131B  1303               	bcf	3,6	;RP1=0, select bank0
  7562  131C  00A4               	movwf	__Umul8_16@multiplier
  7563  131D                     l3039:
  7564  131D  01A0               	clrf	__Umul8_16@product
  7565  131E  01A1               	clrf	__Umul8_16@product+1
  7566  131F                     l3041:
  7567  131F  0872               	movf	__Umul8_16@multiplicand,w
  7568  1320  00F4               	movwf	??__Umul8_16
  7569  1321  01F5               	clrf	??__Umul8_16+1
  7570  1322  0874               	movf	??__Umul8_16,w
  7571  1323  00A2               	movwf	__Umul8_16@word_mpld
  7572  1324  0875               	movf	??__Umul8_16+1,w
  7573  1325  00A3               	movwf	__Umul8_16@word_mpld+1
  7574  1326                     l3043:
  7575  1326  1C24               	btfss	__Umul8_16@multiplier,0
  7576  1327  2B29               	goto	u4101
  7577  1328  2B2A               	goto	u4100
  7578  1329                     u4101:
  7579  1329  2B30               	goto	l735
  7580  132A                     u4100:
  7581  132A                     l3045:
  7582  132A  0822               	movf	__Umul8_16@word_mpld,w
  7583  132B  07A0               	addwf	__Umul8_16@product,f
  7584  132C  1803               	skipnc
  7585  132D  0AA1               	incf	__Umul8_16@product+1,f
  7586  132E  0823               	movf	__Umul8_16@word_mpld+1,w
  7587  132F  07A1               	addwf	__Umul8_16@product+1,f
  7588  1330                     l735:
  7589  1330  3001               	movlw	1
  7590  1331                     u4115:
  7591  1331  1003               	clrc
  7592  1332  0DA2               	rlf	__Umul8_16@word_mpld,f
  7593  1333  0DA3               	rlf	__Umul8_16@word_mpld+1,f
  7594  1334  3EFF               	addlw	-1
  7595  1335  1D03               	skipz
  7596  1336  2B31               	goto	u4115
  7597  1337  1003               	clrc
  7598  1338  0CA4               	rrf	__Umul8_16@multiplier,f
  7599  1339                     l3047:
  7600  1339  0824               	movf	__Umul8_16@multiplier,w
  7601  133A  1D03               	btfss	3,2
  7602  133B  2B3D               	goto	u4121
  7603  133C  2B3E               	goto	u4120
  7604  133D                     u4121:
  7605  133D  2B26               	goto	l3043
  7606  133E                     u4120:
  7607  133E                     l3049:
  7608  133E  0821               	movf	__Umul8_16@product+1,w
  7609  133F  00F3               	movwf	?__Umul8_16+1
  7610  1340  0820               	movf	__Umul8_16@product,w
  7611  1341  00F2               	movwf	?__Umul8_16
  7612  1342                     l737:
  7613  1342  0008               	return
  7614  1343                     __end_of__Umul8_16:
  7615                           
  7616                           	psect	text26
  7617  16A0                     __ptext26:	
  7618 ;; *************** function ___flge *****************
  7619 ;; Defined at:
  7620 ;;		line 4 in file "D:\PrograMicros\pic\sources\c90\common\flge.c"
  7621 ;; Parameters:    Size  Location     Type
  7622 ;;  ff1             4    2[COMMON] unsigned int 
  7623 ;;  ff2             4    6[COMMON] unsigned int 
  7624 ;; Auto vars:     Size  Location     Type
  7625 ;;		None
  7626 ;; Return value:  Size  Location     Type
  7627 ;;		None               void
  7628 ;; Registers used:
  7629 ;;		wreg, status,2, status,0
  7630 ;; Tracked objects:
  7631 ;;		On entry : 0/0
  7632 ;;		On exit  : 0/0
  7633 ;;		Unchanged: 0/0
  7634 ;; Data sizes:     COMMON   BANK0   BANK1   BANK3   BANK2
  7635 ;;      Params:         8       0       0       0       0
  7636 ;;      Locals:         0       0       0       0       0
  7637 ;;      Temps:          0       4       0       0       0
  7638 ;;      Totals:         8       4       0       0       0
  7639 ;;Total ram usage:       12 bytes
  7640 ;; Hardware stack levels used:    1
  7641 ;; Hardware stack levels required when called:    1
  7642 ;; This function calls:
  7643 ;;		Nothing
  7644 ;; This function is called by:
  7645 ;;		_ADC_convert
  7646 ;; This function uses a non-reentrant model
  7647 ;;
  7648                           
  7649                           
  7650                           ;psect for function ___flge
  7651  16A0                     ___flge:
  7652  16A0                     l2323:	
  7653                           ;incstack = 0
  7654                           ; Regs used in ___flge: [wreg+status,2+status,0]
  7655                           
  7656  16A0  3000               	movlw	0
  7657  16A1  0572               	andwf	___flge@ff1,w
  7658  16A2  1283               	bcf	3,5	;RP0=0, select bank0
  7659  16A3  1303               	bcf	3,6	;RP1=0, select bank0
  7660  16A4  00A0               	movwf	??___flge
  7661  16A5  3000               	movlw	0
  7662  16A6  0573               	andwf	___flge@ff1+1,w
  7663  16A7  00A1               	movwf	??___flge+1
  7664  16A8  3080               	movlw	128
  7665  16A9  0574               	andwf	___flge@ff1+2,w
  7666  16AA  00A2               	movwf	??___flge+2
  7667  16AB  307F               	movlw	127
  7668  16AC  0575               	andwf	___flge@ff1+3,w
  7669  16AD  00A3               	movwf	??___flge+3
  7670  16AE  0823               	movf	??___flge+3,w
  7671  16AF  0422               	iorwf	??___flge+2,w
  7672  16B0  0421               	iorwf	??___flge+1,w
  7673  16B1  0420               	iorwf	??___flge,w
  7674  16B2  1D03               	skipz
  7675  16B3  2EB5               	goto	u2891
  7676  16B4  2EB6               	goto	u2890
  7677  16B5                     u2891:
  7678  16B5  2EBE               	goto	l501
  7679  16B6                     u2890:
  7680  16B6                     l2325:
  7681  16B6  3000               	movlw	0
  7682  16B7  00F5               	movwf	___flge@ff1+3
  7683  16B8  3000               	movlw	0
  7684  16B9  00F4               	movwf	___flge@ff1+2
  7685  16BA  3000               	movlw	0
  7686  16BB  00F3               	movwf	___flge@ff1+1
  7687  16BC  3000               	movlw	0
  7688  16BD  00F2               	movwf	___flge@ff1
  7689  16BE                     l501:
  7690  16BE  3000               	movlw	0
  7691  16BF  0576               	andwf	___flge@ff2,w
  7692  16C0  00A0               	movwf	??___flge
  7693  16C1  3000               	movlw	0
  7694  16C2  0577               	andwf	___flge@ff2+1,w
  7695  16C3  00A1               	movwf	??___flge+1
  7696  16C4  3080               	movlw	128
  7697  16C5  0578               	andwf	___flge@ff2+2,w
  7698  16C6  00A2               	movwf	??___flge+2
  7699  16C7  307F               	movlw	127
  7700  16C8  0579               	andwf	___flge@ff2+3,w
  7701  16C9  00A3               	movwf	??___flge+3
  7702  16CA  0823               	movf	??___flge+3,w
  7703  16CB  0422               	iorwf	??___flge+2,w
  7704  16CC  0421               	iorwf	??___flge+1,w
  7705  16CD  0420               	iorwf	??___flge,w
  7706  16CE  1D03               	skipz
  7707  16CF  2ED1               	goto	u2901
  7708  16D0  2ED2               	goto	u2900
  7709  16D1                     u2901:
  7710  16D1  2EDA               	goto	l2329
  7711  16D2                     u2900:
  7712  16D2                     l2327:
  7713  16D2  3000               	movlw	0
  7714  16D3  00F9               	movwf	___flge@ff2+3
  7715  16D4  3000               	movlw	0
  7716  16D5  00F8               	movwf	___flge@ff2+2
  7717  16D6  3000               	movlw	0
  7718  16D7  00F7               	movwf	___flge@ff2+1
  7719  16D8  3000               	movlw	0
  7720  16D9  00F6               	movwf	___flge@ff2
  7721  16DA                     l2329:
  7722  16DA  1FF5               	btfss	___flge@ff1+3,7
  7723  16DB  2EDD               	goto	u2911
  7724  16DC  2EDE               	goto	u2910
  7725  16DD                     u2911:
  7726  16DD  2F02               	goto	l2333
  7727  16DE                     u2910:
  7728  16DE                     l2331:
  7729  16DE  3000               	movlw	0
  7730  16DF  00A0               	movwf	??___flge
  7731  16E0  3000               	movlw	0
  7732  16E1  00A1               	movwf	??___flge+1
  7733  16E2  3000               	movlw	0
  7734  16E3  00A2               	movwf	??___flge+2
  7735  16E4  3080               	movlw	128
  7736  16E5  00A3               	movwf	??___flge+3
  7737  16E6  0872               	movf	___flge@ff1,w
  7738  16E7  02A0               	subwf	??___flge,f
  7739  16E8  0873               	movf	___flge@ff1+1,w
  7740  16E9  1C03               	skipc
  7741  16EA  0F73               	incfsz	___flge@ff1+1,w
  7742  16EB  2EED               	goto	u2921
  7743  16EC  2EEE               	goto	u2922
  7744  16ED                     u2921:
  7745  16ED  02A1               	subwf	??___flge+1,f
  7746  16EE                     u2922:
  7747  16EE  0874               	movf	___flge@ff1+2,w
  7748  16EF  1C03               	skipc
  7749  16F0  0F74               	incfsz	___flge@ff1+2,w
  7750  16F1  2EF3               	goto	u2923
  7751  16F2  2EF4               	goto	u2924
  7752  16F3                     u2923:
  7753  16F3  02A2               	subwf	??___flge+2,f
  7754  16F4                     u2924:
  7755  16F4  0875               	movf	___flge@ff1+3,w
  7756  16F5  1C03               	skipc
  7757  16F6  0F75               	incfsz	___flge@ff1+3,w
  7758  16F7  2EF9               	goto	u2925
  7759  16F8  2EFA               	goto	u2926
  7760  16F9                     u2925:
  7761  16F9  02A3               	subwf	??___flge+3,f
  7762  16FA                     u2926:
  7763  16FA  0823               	movf	??___flge+3,w
  7764  16FB  00F5               	movwf	___flge@ff1+3
  7765  16FC  0822               	movf	??___flge+2,w
  7766  16FD  00F4               	movwf	___flge@ff1+2
  7767  16FE  0821               	movf	??___flge+1,w
  7768  16FF  00F3               	movwf	___flge@ff1+1
  7769  1700  0820               	movf	??___flge,w
  7770  1701  00F2               	movwf	___flge@ff1
  7771  1702                     l2333:
  7772  1702  1FF9               	btfss	___flge@ff2+3,7
  7773  1703  2F05               	goto	u2931
  7774  1704  2F06               	goto	u2930
  7775  1705                     u2931:
  7776  1705  2F2A               	goto	l504
  7777  1706                     u2930:
  7778  1706                     l2335:
  7779  1706  3000               	movlw	0
  7780  1707  00A0               	movwf	??___flge
  7781  1708  3000               	movlw	0
  7782  1709  00A1               	movwf	??___flge+1
  7783  170A  3000               	movlw	0
  7784  170B  00A2               	movwf	??___flge+2
  7785  170C  3080               	movlw	128
  7786  170D  00A3               	movwf	??___flge+3
  7787  170E  0876               	movf	___flge@ff2,w
  7788  170F  02A0               	subwf	??___flge,f
  7789  1710  0877               	movf	___flge@ff2+1,w
  7790  1711  1C03               	skipc
  7791  1712  0F77               	incfsz	___flge@ff2+1,w
  7792  1713  2F15               	goto	u2941
  7793  1714  2F16               	goto	u2942
  7794  1715                     u2941:
  7795  1715  02A1               	subwf	??___flge+1,f
  7796  1716                     u2942:
  7797  1716  0878               	movf	___flge@ff2+2,w
  7798  1717  1C03               	skipc
  7799  1718  0F78               	incfsz	___flge@ff2+2,w
  7800  1719  2F1B               	goto	u2943
  7801  171A  2F1C               	goto	u2944
  7802  171B                     u2943:
  7803  171B  02A2               	subwf	??___flge+2,f
  7804  171C                     u2944:
  7805  171C  0879               	movf	___flge@ff2+3,w
  7806  171D  1C03               	skipc
  7807  171E  0F79               	incfsz	___flge@ff2+3,w
  7808  171F  2F21               	goto	u2945
  7809  1720  2F22               	goto	u2946
  7810  1721                     u2945:
  7811  1721  02A3               	subwf	??___flge+3,f
  7812  1722                     u2946:
  7813  1722  0823               	movf	??___flge+3,w
  7814  1723  00F9               	movwf	___flge@ff2+3
  7815  1724  0822               	movf	??___flge+2,w
  7816  1725  00F8               	movwf	___flge@ff2+2
  7817  1726  0821               	movf	??___flge+1,w
  7818  1727  00F7               	movwf	___flge@ff2+1
  7819  1728  0820               	movf	??___flge,w
  7820  1729  00F6               	movwf	___flge@ff2
  7821  172A                     l504:
  7822  172A  3080               	movlw	128
  7823  172B  06F5               	xorwf	___flge@ff1+3,f
  7824  172C  3080               	movlw	128
  7825  172D  06F9               	xorwf	___flge@ff2+3,f
  7826  172E  0879               	movf	___flge@ff2+3,w
  7827  172F  0275               	subwf	___flge@ff1+3,w
  7828  1730  1D03               	skipz
  7829  1731  2F3C               	goto	u2955
  7830  1732  0878               	movf	___flge@ff2+2,w
  7831  1733  0274               	subwf	___flge@ff1+2,w
  7832  1734  1D03               	skipz
  7833  1735  2F3C               	goto	u2955
  7834  1736  0877               	movf	___flge@ff2+1,w
  7835  1737  0273               	subwf	___flge@ff1+1,w
  7836  1738  1D03               	skipz
  7837  1739  2F3C               	goto	u2955
  7838  173A  0876               	movf	___flge@ff2,w
  7839  173B  0272               	subwf	___flge@ff1,w
  7840  173C                     u2955:
  7841  173C  1803               	skipnc
  7842  173D  2F3F               	goto	u2951
  7843  173E  2F40               	goto	u2950
  7844  173F                     u2951:
  7845  173F  2F42               	goto	l2339
  7846  1740                     u2950:
  7847  1740                     l2337:
  7848  1740  1003               	clrc
  7849  1741  2F43               	goto	l505
  7850  1742                     l2339:
  7851  1742  1403               	setc
  7852  1743                     l505:
  7853  1743  0008               	return
  7854  1744                     __end_of___flge:
  7855                           
  7856                           	psect	text27
  7857  0883                     __ptext27:	
  7858 ;; *************** function ___fldiv *****************
  7859 ;; Defined at:
  7860 ;;		line 8 in file "D:\PrograMicros\pic\sources\c90\common\sprcdiv.c"
  7861 ;; Parameters:    Size  Location     Type
  7862 ;;  a               4   23[BANK0 ] unsigned int 
  7863 ;;  b               4   27[BANK0 ] unsigned int 
  7864 ;; Auto vars:     Size  Location     Type
  7865 ;;  grs             4   43[BANK0 ] unsigned long 
  7866 ;;  rem             4   36[BANK0 ] unsigned long 
  7867 ;;  new_exp         2   41[BANK0 ] int 
  7868 ;;  aexp            1   48[BANK0 ] unsigned char 
  7869 ;;  bexp            1   47[BANK0 ] unsigned char 
  7870 ;;  sign            1   40[BANK0 ] unsigned char 
  7871 ;; Return value:  Size  Location     Type
  7872 ;;                  4   23[BANK0 ] unsigned char 
  7873 ;; Registers used:
  7874 ;;		wreg, status,2, status,0, btemp+1
  7875 ;; Tracked objects:
  7876 ;;		On entry : 0/0
  7877 ;;		On exit  : 0/0
  7878 ;;		Unchanged: 0/0
  7879 ;; Data sizes:     COMMON   BANK0   BANK1   BANK3   BANK2
  7880 ;;      Params:         0       8       0       0       0
  7881 ;;      Locals:         0      13       0       0       0
  7882 ;;      Temps:          0       5       0       0       0
  7883 ;;      Totals:         0      26       0       0       0
  7884 ;;Total ram usage:       26 bytes
  7885 ;; Hardware stack levels used:    1
  7886 ;; Hardware stack levels required when called:    1
  7887 ;; This function calls:
  7888 ;;		Nothing
  7889 ;; This function is called by:
  7890 ;;		_main
  7891 ;;		_ADC_convert
  7892 ;; This function uses a non-reentrant model
  7893 ;;
  7894                           
  7895                           
  7896                           ;psect for function ___fldiv
  7897  0883                     ___fldiv:
  7898  0883                     l2385:	
  7899                           ;incstack = 0
  7900                           ; Regs used in ___fldiv: [wreg+status,2+status,0+btemp+1]
  7901                           
  7902  0883  1283               	bcf	3,5	;RP0=0, select bank0
  7903  0884  1303               	bcf	3,6	;RP1=0, select bank0
  7904  0885  083E               	movf	___fldiv@b+3,w
  7905  0886  3980               	andlw	128
  7906  0887  00BF               	movwf	??___fldiv
  7907  0888  083F               	movf	??___fldiv,w
  7908  0889  00C8               	movwf	___fldiv@sign
  7909  088A                     l2387:
  7910  088A  083E               	movf	___fldiv@b+3,w
  7911  088B  00BF               	movwf	??___fldiv
  7912  088C  073F               	addwf	??___fldiv,w
  7913  088D  00C0               	movwf	??___fldiv+1
  7914  088E  0840               	movf	??___fldiv+1,w
  7915  088F  00CF               	movwf	___fldiv@bexp
  7916  0890                     l2389:
  7917  0890  1FBD               	btfss	___fldiv@b+2,7
  7918  0891  2893               	goto	u3061
  7919  0892  2894               	goto	u3060
  7920  0893                     u3061:
  7921  0893  2895               	goto	l2393
  7922  0894                     u3060:
  7923  0894                     l2391:
  7924  0894  144F               	bsf	___fldiv@bexp,0
  7925  0895                     l2393:
  7926  0895  084F               	movf	___fldiv@bexp,w
  7927  0896  1903               	btfsc	3,2
  7928  0897  2899               	goto	u3071
  7929  0898  289A               	goto	u3070
  7930  0899                     u3071:
  7931  0899  28AA               	goto	l2403
  7932  089A                     u3070:
  7933  089A                     l2395:
  7934  089A  0A4F               	incf	___fldiv@bexp,w
  7935  089B  1D03               	btfss	3,2
  7936  089C  289E               	goto	u3081
  7937  089D  289F               	goto	u3080
  7938  089E                     u3081:
  7939  089E  28A7               	goto	l2399
  7940  089F                     u3080:
  7941  089F                     l2397:
  7942  089F  3000               	movlw	0
  7943  08A0  00BE               	movwf	___fldiv@b+3
  7944  08A1  3000               	movlw	0
  7945  08A2  00BD               	movwf	___fldiv@b+2
  7946  08A3  3000               	movlw	0
  7947  08A4  00BC               	movwf	___fldiv@b+1
  7948  08A5  3000               	movlw	0
  7949  08A6  00BB               	movwf	___fldiv@b
  7950  08A7                     l2399:
  7951  08A7  17BD               	bsf	___fldiv@b+2,7
  7952  08A8                     l2401:
  7953  08A8  01BE               	clrf	___fldiv@b+3
  7954  08A9  28B2               	goto	l2405
  7955  08AA                     l2403:
  7956  08AA  3000               	movlw	0
  7957  08AB  00BE               	movwf	___fldiv@b+3
  7958  08AC  3000               	movlw	0
  7959  08AD  00BD               	movwf	___fldiv@b+2
  7960  08AE  3000               	movlw	0
  7961  08AF  00BC               	movwf	___fldiv@b+1
  7962  08B0  3000               	movlw	0
  7963  08B1  00BB               	movwf	___fldiv@b
  7964  08B2                     l2405:
  7965  08B2  083A               	movf	___fldiv@a+3,w
  7966  08B3  3980               	andlw	128
  7967  08B4  00BF               	movwf	??___fldiv
  7968  08B5  083F               	movf	??___fldiv,w
  7969  08B6  06C8               	xorwf	___fldiv@sign,f
  7970  08B7                     l2407:
  7971  08B7  083A               	movf	___fldiv@a+3,w
  7972  08B8  00BF               	movwf	??___fldiv
  7973  08B9  073F               	addwf	??___fldiv,w
  7974  08BA  00C0               	movwf	??___fldiv+1
  7975  08BB  0840               	movf	??___fldiv+1,w
  7976  08BC  00D0               	movwf	___fldiv@aexp
  7977  08BD                     l2409:
  7978  08BD  1FB9               	btfss	___fldiv@a+2,7
  7979  08BE  28C0               	goto	u3091
  7980  08BF  28C1               	goto	u3090
  7981  08C0                     u3091:
  7982  08C0  28C2               	goto	l2413
  7983  08C1                     u3090:
  7984  08C1                     l2411:
  7985  08C1  1450               	bsf	___fldiv@aexp,0
  7986  08C2                     l2413:
  7987  08C2  0850               	movf	___fldiv@aexp,w
  7988  08C3  1903               	btfsc	3,2
  7989  08C4  28C6               	goto	u3101
  7990  08C5  28C7               	goto	u3100
  7991  08C6                     u3101:
  7992  08C6  28D7               	goto	l2423
  7993  08C7                     u3100:
  7994  08C7                     l2415:
  7995  08C7  0A50               	incf	___fldiv@aexp,w
  7996  08C8  1D03               	btfss	3,2
  7997  08C9  28CB               	goto	u3111
  7998  08CA  28CC               	goto	u3110
  7999  08CB                     u3111:
  8000  08CB  28D4               	goto	l2419
  8001  08CC                     u3110:
  8002  08CC                     l2417:
  8003  08CC  3000               	movlw	0
  8004  08CD  00BA               	movwf	___fldiv@a+3
  8005  08CE  3000               	movlw	0
  8006  08CF  00B9               	movwf	___fldiv@a+2
  8007  08D0  3000               	movlw	0
  8008  08D1  00B8               	movwf	___fldiv@a+1
  8009  08D2  3000               	movlw	0
  8010  08D3  00B7               	movwf	___fldiv@a
  8011  08D4                     l2419:
  8012  08D4  17B9               	bsf	___fldiv@a+2,7
  8013  08D5                     l2421:
  8014  08D5  01BA               	clrf	___fldiv@a+3
  8015  08D6  28DF               	goto	l676
  8016  08D7                     l2423:
  8017  08D7  3000               	movlw	0
  8018  08D8  00BA               	movwf	___fldiv@a+3
  8019  08D9  3000               	movlw	0
  8020  08DA  00B9               	movwf	___fldiv@a+2
  8021  08DB  3000               	movlw	0
  8022  08DC  00B8               	movwf	___fldiv@a+1
  8023  08DD  3000               	movlw	0
  8024  08DE  00B7               	movwf	___fldiv@a
  8025  08DF                     l676:
  8026  08DF  083A               	movf	___fldiv@a+3,w
  8027  08E0  0439               	iorwf	___fldiv@a+2,w
  8028  08E1  0438               	iorwf	___fldiv@a+1,w
  8029  08E2  0437               	iorwf	___fldiv@a,w
  8030  08E3  1D03               	skipz
  8031  08E4  28E6               	goto	u3121
  8032  08E5  28E7               	goto	u3120
  8033  08E6                     u3121:
  8034  08E6  2900               	goto	l2433
  8035  08E7                     u3120:
  8036  08E7                     l2425:
  8037  08E7  3000               	movlw	0
  8038  08E8  00BE               	movwf	___fldiv@b+3
  8039  08E9  3000               	movlw	0
  8040  08EA  00BD               	movwf	___fldiv@b+2
  8041  08EB  3000               	movlw	0
  8042  08EC  00BC               	movwf	___fldiv@b+1
  8043  08ED  3000               	movlw	0
  8044  08EE  00BB               	movwf	___fldiv@b
  8045  08EF  3080               	movlw	128
  8046  08F0  04BD               	iorwf	___fldiv@b+2,f
  8047  08F1  307F               	movlw	127
  8048  08F2  04BE               	iorwf	___fldiv@b+3,f
  8049  08F3                     l2427:
  8050  08F3  0848               	movf	___fldiv@sign,w
  8051  08F4  00BF               	movwf	??___fldiv
  8052  08F5  083F               	movf	??___fldiv,w
  8053  08F6  04BE               	iorwf	___fldiv@b+3,f
  8054  08F7                     l2429:
  8055  08F7  083E               	movf	___fldiv@b+3,w
  8056  08F8  00BA               	movwf	?___fldiv+3
  8057  08F9  083D               	movf	___fldiv@b+2,w
  8058  08FA  00B9               	movwf	?___fldiv+2
  8059  08FB  083C               	movf	___fldiv@b+1,w
  8060  08FC  00B8               	movwf	?___fldiv+1
  8061  08FD  083B               	movf	___fldiv@b,w
  8062  08FE  00B7               	movwf	?___fldiv
  8063  08FF  2A5F               	goto	l678
  8064  0900                     l2433:
  8065  0900  084F               	movf	___fldiv@bexp,w
  8066  0901  1D03               	btfss	3,2
  8067  0902  2904               	goto	u3131
  8068  0903  2905               	goto	u3130
  8069  0904                     u3131:
  8070  0904  290E               	goto	l2439
  8071  0905                     u3130:
  8072  0905                     l2435:
  8073  0905  3000               	movlw	0
  8074  0906  00BA               	movwf	?___fldiv+3
  8075  0907  3000               	movlw	0
  8076  0908  00B9               	movwf	?___fldiv+2
  8077  0909  3000               	movlw	0
  8078  090A  00B8               	movwf	?___fldiv+1
  8079  090B  3000               	movlw	0
  8080  090C  00B7               	movwf	?___fldiv
  8081  090D  2A5F               	goto	l678
  8082  090E                     l2439:
  8083  090E  084F               	movf	___fldiv@bexp,w
  8084  090F  00BF               	movwf	??___fldiv
  8085  0910  01C0               	clrf	??___fldiv+1
  8086  0911  0840               	movf	??___fldiv+1,w
  8087  0912  00C2               	movwf	??___fldiv+3
  8088  0913  0850               	movf	___fldiv@aexp,w
  8089  0914  023F               	subwf	??___fldiv,w
  8090  0915  00C1               	movwf	??___fldiv+2
  8091  0916  1C03               	skipc
  8092  0917  03C2               	decf	??___fldiv+3,f
  8093  0918  0841               	movf	??___fldiv+2,w
  8094  0919  3E7F               	addlw	127
  8095  091A  00C9               	movwf	___fldiv@new_exp
  8096  091B  0842               	movf	??___fldiv+3,w
  8097  091C  1803               	skipnc
  8098  091D  3E01               	addlw	1
  8099  091E  3E00               	addlw	0
  8100  091F  00CA               	movwf	___fldiv@new_exp+1
  8101  0920                     l2441:
  8102  0920  083E               	movf	___fldiv@b+3,w
  8103  0921  00C7               	movwf	___fldiv@rem+3
  8104  0922  083D               	movf	___fldiv@b+2,w
  8105  0923  00C6               	movwf	___fldiv@rem+2
  8106  0924  083C               	movf	___fldiv@b+1,w
  8107  0925  00C5               	movwf	___fldiv@rem+1
  8108  0926  083B               	movf	___fldiv@b,w
  8109  0927  00C4               	movwf	___fldiv@rem
  8110  0928                     l2443:
  8111  0928  3000               	movlw	0
  8112  0929  00BE               	movwf	___fldiv@b+3
  8113  092A  3000               	movlw	0
  8114  092B  00BD               	movwf	___fldiv@b+2
  8115  092C  3000               	movlw	0
  8116  092D  00BC               	movwf	___fldiv@b+1
  8117  092E  3000               	movlw	0
  8118  092F  00BB               	movwf	___fldiv@b
  8119  0930                     l2445:
  8120  0930  3000               	movlw	0
  8121  0931  00CE               	movwf	___fldiv@grs+3
  8122  0932  3000               	movlw	0
  8123  0933  00CD               	movwf	___fldiv@grs+2
  8124  0934  3000               	movlw	0
  8125  0935  00CC               	movwf	___fldiv@grs+1
  8126  0936  3000               	movlw	0
  8127  0937  00CB               	movwf	___fldiv@grs
  8128  0938                     l2447:
  8129  0938  01D0               	clrf	___fldiv@aexp
  8130  0939  2984               	goto	l2467
  8131  093A                     l2449:
  8132  093A  0850               	movf	___fldiv@aexp,w
  8133  093B  1903               	btfsc	3,2
  8134  093C  293E               	goto	u3141
  8135  093D  293F               	goto	u3140
  8136  093E                     u3141:
  8137  093E  295F               	goto	l2459
  8138  093F                     u3140:
  8139  093F                     l2451:
  8140  093F  3001               	movlw	1
  8141  0940  00BF               	movwf	??___fldiv
  8142  0941                     u3155:
  8143  0941  1003               	clrc
  8144  0942  0DC4               	rlf	___fldiv@rem,f
  8145  0943  0DC5               	rlf	___fldiv@rem+1,f
  8146  0944  0DC6               	rlf	___fldiv@rem+2,f
  8147  0945  0DC7               	rlf	___fldiv@rem+3,f
  8148  0946  0BBF               	decfsz	??___fldiv,f
  8149  0947  2941               	goto	u3155
  8150  0948  3001               	movlw	1
  8151  0949  00BF               	movwf	??___fldiv
  8152  094A                     u3165:
  8153  094A  1003               	clrc
  8154  094B  0DBB               	rlf	___fldiv@b,f
  8155  094C  0DBC               	rlf	___fldiv@b+1,f
  8156  094D  0DBD               	rlf	___fldiv@b+2,f
  8157  094E  0DBE               	rlf	___fldiv@b+3,f
  8158  094F  0BBF               	decfsz	??___fldiv,f
  8159  0950  294A               	goto	u3165
  8160  0951                     l2453:
  8161  0951  1FCE               	btfss	___fldiv@grs+3,7
  8162  0952  2954               	goto	u3171
  8163  0953  2955               	goto	u3170
  8164  0954                     u3171:
  8165  0954  2956               	goto	l2457
  8166  0955                     u3170:
  8167  0955                     l2455:
  8168  0955  143B               	bsf	___fldiv@b,0
  8169  0956                     l2457:
  8170  0956  3001               	movlw	1
  8171  0957  00BF               	movwf	??___fldiv
  8172  0958                     u3185:
  8173  0958  1003               	clrc
  8174  0959  0DCB               	rlf	___fldiv@grs,f
  8175  095A  0DCC               	rlf	___fldiv@grs+1,f
  8176  095B  0DCD               	rlf	___fldiv@grs+2,f
  8177  095C  0DCE               	rlf	___fldiv@grs+3,f
  8178  095D  0BBF               	decfsz	??___fldiv,f
  8179  095E  2958               	goto	u3185
  8180  095F                     l2459:
  8181  095F  083A               	movf	___fldiv@a+3,w
  8182  0960  0247               	subwf	___fldiv@rem+3,w
  8183  0961  1D03               	skipz
  8184  0962  296D               	goto	u3195
  8185  0963  0839               	movf	___fldiv@a+2,w
  8186  0964  0246               	subwf	___fldiv@rem+2,w
  8187  0965  1D03               	skipz
  8188  0966  296D               	goto	u3195
  8189  0967  0838               	movf	___fldiv@a+1,w
  8190  0968  0245               	subwf	___fldiv@rem+1,w
  8191  0969  1D03               	skipz
  8192  096A  296D               	goto	u3195
  8193  096B  0837               	movf	___fldiv@a,w
  8194  096C  0244               	subwf	___fldiv@rem,w
  8195  096D                     u3195:
  8196  096D  1C03               	skipc
  8197  096E  2970               	goto	u3191
  8198  096F  2971               	goto	u3190
  8199  0970                     u3191:
  8200  0970  2980               	goto	l2465
  8201  0971                     u3190:
  8202  0971                     l2461:
  8203  0971  174E               	bsf	___fldiv@grs+3,6
  8204  0972                     l2463:
  8205  0972  0837               	movf	___fldiv@a,w
  8206  0973  02C4               	subwf	___fldiv@rem,f
  8207  0974  0838               	movf	___fldiv@a+1,w
  8208  0975  1C03               	skipc
  8209  0976  0F38               	incfsz	___fldiv@a+1,w
  8210  0977  02C5               	subwf	___fldiv@rem+1,f
  8211  0978  0839               	movf	___fldiv@a+2,w
  8212  0979  1C03               	skipc
  8213  097A  0F39               	incfsz	___fldiv@a+2,w
  8214  097B  02C6               	subwf	___fldiv@rem+2,f
  8215  097C  083A               	movf	___fldiv@a+3,w
  8216  097D  1C03               	skipc
  8217  097E  0F3A               	incfsz	___fldiv@a+3,w
  8218  097F  02C7               	subwf	___fldiv@rem+3,f
  8219  0980                     l2465:
  8220  0980  3001               	movlw	1
  8221  0981  00BF               	movwf	??___fldiv
  8222  0982  083F               	movf	??___fldiv,w
  8223  0983  07D0               	addwf	___fldiv@aexp,f
  8224  0984                     l2467:
  8225  0984  301A               	movlw	26
  8226  0985  0250               	subwf	___fldiv@aexp,w
  8227  0986  1C03               	skipc
  8228  0987  2989               	goto	u3201
  8229  0988  298A               	goto	u3200
  8230  0989                     u3201:
  8231  0989  293A               	goto	l2449
  8232  098A                     u3200:
  8233  098A                     l2469:
  8234  098A  0847               	movf	___fldiv@rem+3,w
  8235  098B  0446               	iorwf	___fldiv@rem+2,w
  8236  098C  0445               	iorwf	___fldiv@rem+1,w
  8237  098D  0444               	iorwf	___fldiv@rem,w
  8238  098E  1903               	skipnz
  8239  098F  2991               	goto	u3211
  8240  0990  2992               	goto	u3210
  8241  0991                     u3211:
  8242  0991  29B1               	goto	l2483
  8243  0992                     u3210:
  8244  0992                     l2471:
  8245  0992  144B               	bsf	___fldiv@grs,0
  8246  0993  29B1               	goto	l2483
  8247  0994                     l2473:
  8248  0994  3001               	movlw	1
  8249  0995  00BF               	movwf	??___fldiv
  8250  0996                     u3225:
  8251  0996  1003               	clrc
  8252  0997  0DBB               	rlf	___fldiv@b,f
  8253  0998  0DBC               	rlf	___fldiv@b+1,f
  8254  0999  0DBD               	rlf	___fldiv@b+2,f
  8255  099A  0DBE               	rlf	___fldiv@b+3,f
  8256  099B  0BBF               	decfsz	??___fldiv,f
  8257  099C  2996               	goto	u3225
  8258  099D                     l2475:
  8259  099D  1FCE               	btfss	___fldiv@grs+3,7
  8260  099E  29A0               	goto	u3231
  8261  099F  29A1               	goto	u3230
  8262  09A0                     u3231:
  8263  09A0  29A2               	goto	l2479
  8264  09A1                     u3230:
  8265  09A1                     l2477:
  8266  09A1  143B               	bsf	___fldiv@b,0
  8267  09A2                     l2479:
  8268  09A2  3001               	movlw	1
  8269  09A3  00BF               	movwf	??___fldiv
  8270  09A4                     u3245:
  8271  09A4  1003               	clrc
  8272  09A5  0DCB               	rlf	___fldiv@grs,f
  8273  09A6  0DCC               	rlf	___fldiv@grs+1,f
  8274  09A7  0DCD               	rlf	___fldiv@grs+2,f
  8275  09A8  0DCE               	rlf	___fldiv@grs+3,f
  8276  09A9  0BBF               	decfsz	??___fldiv,f
  8277  09AA  29A4               	goto	u3245
  8278  09AB                     l2481:
  8279  09AB  30FF               	movlw	255
  8280  09AC  07C9               	addwf	___fldiv@new_exp,f
  8281  09AD  1803               	skipnc
  8282  09AE  0ACA               	incf	___fldiv@new_exp+1,f
  8283  09AF  30FF               	movlw	255
  8284  09B0  07CA               	addwf	___fldiv@new_exp+1,f
  8285  09B1                     l2483:
  8286  09B1  1FBD               	btfss	___fldiv@b+2,7
  8287  09B2  29B4               	goto	u3251
  8288  09B3  29B5               	goto	u3250
  8289  09B4                     u3251:
  8290  09B4  2994               	goto	l2473
  8291  09B5                     u3250:
  8292  09B5                     l2485:
  8293  09B5  01D0               	clrf	___fldiv@aexp
  8294  09B6                     l2487:
  8295  09B6  1FCE               	btfss	___fldiv@grs+3,7
  8296  09B7  29B9               	goto	u3261
  8297  09B8  29BA               	goto	u3260
  8298  09B9                     u3261:
  8299  09B9  29D6               	goto	l2495
  8300  09BA                     u3260:
  8301  09BA                     l2489:
  8302  09BA  30FF               	movlw	255
  8303  09BB  054B               	andwf	___fldiv@grs,w
  8304  09BC  00BF               	movwf	??___fldiv
  8305  09BD  30FF               	movlw	255
  8306  09BE  054C               	andwf	___fldiv@grs+1,w
  8307  09BF  00C0               	movwf	??___fldiv+1
  8308  09C0  30FF               	movlw	255
  8309  09C1  054D               	andwf	___fldiv@grs+2,w
  8310  09C2  00C1               	movwf	??___fldiv+2
  8311  09C3  307F               	movlw	127
  8312  09C4  054E               	andwf	___fldiv@grs+3,w
  8313  09C5  00C2               	movwf	??___fldiv+3
  8314  09C6  0842               	movf	??___fldiv+3,w
  8315  09C7  0441               	iorwf	??___fldiv+2,w
  8316  09C8  0440               	iorwf	??___fldiv+1,w
  8317  09C9  043F               	iorwf	??___fldiv,w
  8318  09CA  1903               	skipnz
  8319  09CB  29CD               	goto	u3271
  8320  09CC  29CE               	goto	u3270
  8321  09CD                     u3271:
  8322  09CD  29D1               	goto	l692
  8323  09CE                     u3270:
  8324  09CE                     l2491:
  8325  09CE  01D0               	clrf	___fldiv@aexp
  8326  09CF  0AD0               	incf	___fldiv@aexp,f
  8327  09D0  29D6               	goto	l2495
  8328  09D1                     l692:
  8329  09D1  1C3B               	btfss	___fldiv@b,0
  8330  09D2  29D4               	goto	u3281
  8331  09D3  29D5               	goto	u3280
  8332  09D4                     u3281:
  8333  09D4  29D6               	goto	l2495
  8334  09D5                     u3280:
  8335  09D5  29CE               	goto	l2491
  8336  09D6                     l2495:
  8337  09D6  0850               	movf	___fldiv@aexp,w
  8338  09D7  1903               	btfsc	3,2
  8339  09D8  29DA               	goto	u3291
  8340  09D9  29DB               	goto	u3290
  8341  09DA                     u3291:
  8342  09DA  2A0C               	goto	l2505
  8343  09DB                     u3290:
  8344  09DB                     l2497:
  8345  09DB  3001               	movlw	1
  8346  09DC  07BB               	addwf	___fldiv@b,f
  8347  09DD  3000               	movlw	0
  8348  09DE  1803               	skipnc
  8349  09DF  3001               	movlw	1
  8350  09E0  07BC               	addwf	___fldiv@b+1,f
  8351  09E1  3000               	movlw	0
  8352  09E2  1803               	skipnc
  8353  09E3  3001               	movlw	1
  8354  09E4  07BD               	addwf	___fldiv@b+2,f
  8355  09E5  3000               	movlw	0
  8356  09E6  1803               	skipnc
  8357  09E7  3001               	movlw	1
  8358  09E8  07BE               	addwf	___fldiv@b+3,f
  8359  09E9                     l2499:
  8360  09E9  1C3E               	btfss	___fldiv@b+3,0
  8361  09EA  29EC               	goto	u3301
  8362  09EB  29ED               	goto	u3300
  8363  09EC                     u3301:
  8364  09EC  2A0C               	goto	l2505
  8365  09ED                     u3300:
  8366  09ED                     l2501:
  8367  09ED  083B               	movf	___fldiv@b,w
  8368  09EE  00BF               	movwf	??___fldiv
  8369  09EF  083C               	movf	___fldiv@b+1,w
  8370  09F0  00C0               	movwf	??___fldiv+1
  8371  09F1  083D               	movf	___fldiv@b+2,w
  8372  09F2  00C1               	movwf	??___fldiv+2
  8373  09F3  083E               	movf	___fldiv@b+3,w
  8374  09F4  00C2               	movwf	??___fldiv+3
  8375  09F5  3001               	movlw	1
  8376  09F6  00C3               	movwf	??___fldiv+4
  8377  09F7                     u3315:
  8378  09F7  0D42               	rlf	??___fldiv+3,w
  8379  09F8  0CC2               	rrf	??___fldiv+3,f
  8380  09F9  0CC1               	rrf	??___fldiv+2,f
  8381  09FA  0CC0               	rrf	??___fldiv+1,f
  8382  09FB  0CBF               	rrf	??___fldiv,f
  8383  09FC                     u3310:
  8384  09FC  0BC3               	decfsz	??___fldiv+4,f
  8385  09FD  29F7               	goto	u3315
  8386  09FE  0842               	movf	??___fldiv+3,w
  8387  09FF  00BE               	movwf	___fldiv@b+3
  8388  0A00  0841               	movf	??___fldiv+2,w
  8389  0A01  00BD               	movwf	___fldiv@b+2
  8390  0A02  0840               	movf	??___fldiv+1,w
  8391  0A03  00BC               	movwf	___fldiv@b+1
  8392  0A04  083F               	movf	??___fldiv,w
  8393  0A05  00BB               	movwf	___fldiv@b
  8394  0A06                     l2503:
  8395  0A06  3001               	movlw	1
  8396  0A07  07C9               	addwf	___fldiv@new_exp,f
  8397  0A08  1803               	skipnc
  8398  0A09  0ACA               	incf	___fldiv@new_exp+1,f
  8399  0A0A  3000               	movlw	0
  8400  0A0B  07CA               	addwf	___fldiv@new_exp+1,f
  8401  0A0C                     l2505:
  8402  0A0C  084A               	movf	___fldiv@new_exp+1,w
  8403  0A0D  3A80               	xorlw	128
  8404  0A0E  00FF               	movwf	btemp+1
  8405  0A0F  3080               	movlw	128
  8406  0A10  027F               	subwf	btemp+1,w
  8407  0A11  1D03               	skipz
  8408  0A12  2A15               	goto	u3325
  8409  0A13  30FF               	movlw	255
  8410  0A14  0249               	subwf	___fldiv@new_exp,w
  8411  0A15                     u3325:
  8412  0A15  1C03               	skipc
  8413  0A16  2A18               	goto	u3321
  8414  0A17  2A19               	goto	u3320
  8415  0A18                     u3321:
  8416  0A18  2A27               	goto	l2509
  8417  0A19                     u3320:
  8418  0A19                     l2507:
  8419  0A19  30FF               	movlw	255
  8420  0A1A  1283               	bcf	3,5	;RP0=0, select bank0
  8421  0A1B  1303               	bcf	3,6	;RP1=0, select bank0
  8422  0A1C  00C9               	movwf	___fldiv@new_exp
  8423  0A1D  3000               	movlw	0
  8424  0A1E  00CA               	movwf	___fldiv@new_exp+1
  8425  0A1F  3000               	movlw	0
  8426  0A20  00BE               	movwf	___fldiv@b+3
  8427  0A21  3000               	movlw	0
  8428  0A22  00BD               	movwf	___fldiv@b+2
  8429  0A23  3000               	movlw	0
  8430  0A24  00BC               	movwf	___fldiv@b+1
  8431  0A25  3000               	movlw	0
  8432  0A26  00BB               	movwf	___fldiv@b
  8433  0A27                     l2509:
  8434  0A27  1283               	bcf	3,5	;RP0=0, select bank0
  8435  0A28  1303               	bcf	3,6	;RP1=0, select bank0
  8436  0A29  084A               	movf	___fldiv@new_exp+1,w
  8437  0A2A  3A80               	xorlw	128
  8438  0A2B  00FF               	movwf	btemp+1
  8439  0A2C  3080               	movlw	128
  8440  0A2D  027F               	subwf	btemp+1,w
  8441  0A2E  1D03               	skipz
  8442  0A2F  2A32               	goto	u3335
  8443  0A30  3001               	movlw	1
  8444  0A31  0249               	subwf	___fldiv@new_exp,w
  8445  0A32                     u3335:
  8446  0A32  1803               	skipnc
  8447  0A33  2A35               	goto	u3331
  8448  0A34  2A36               	goto	u3330
  8449  0A35                     u3331:
  8450  0A35  2A43               	goto	l698
  8451  0A36                     u3330:
  8452  0A36                     l2511:
  8453  0A36  1283               	bcf	3,5	;RP0=0, select bank0
  8454  0A37  1303               	bcf	3,6	;RP1=0, select bank0
  8455  0A38  01C9               	clrf	___fldiv@new_exp
  8456  0A39  01CA               	clrf	___fldiv@new_exp+1
  8457  0A3A                     l2513:
  8458  0A3A  3000               	movlw	0
  8459  0A3B  00BE               	movwf	___fldiv@b+3
  8460  0A3C  3000               	movlw	0
  8461  0A3D  00BD               	movwf	___fldiv@b+2
  8462  0A3E  3000               	movlw	0
  8463  0A3F  00BC               	movwf	___fldiv@b+1
  8464  0A40  3000               	movlw	0
  8465  0A41  00BB               	movwf	___fldiv@b
  8466  0A42                     l2515:
  8467  0A42  01C8               	clrf	___fldiv@sign
  8468  0A43                     l698:
  8469  0A43  1283               	bcf	3,5	;RP0=0, select bank0
  8470  0A44  1303               	bcf	3,6	;RP1=0, select bank0
  8471  0A45  0849               	movf	___fldiv@new_exp,w
  8472  0A46  00BF               	movwf	??___fldiv
  8473  0A47  083F               	movf	??___fldiv,w
  8474  0A48  00CF               	movwf	___fldiv@bexp
  8475  0A49                     l2517:
  8476  0A49  1C4F               	btfss	___fldiv@bexp,0
  8477  0A4A  2A4C               	goto	u3341
  8478  0A4B  2A4D               	goto	u3340
  8479  0A4C                     u3341:
  8480  0A4C  2A4F               	goto	l2521
  8481  0A4D                     u3340:
  8482  0A4D                     l2519:
  8483  0A4D  17BD               	bsf	___fldiv@b+2,7
  8484  0A4E  2A53               	goto	l700
  8485  0A4F                     l2521:
  8486  0A4F  307F               	movlw	127
  8487  0A50  00BF               	movwf	??___fldiv
  8488  0A51  083F               	movf	??___fldiv,w
  8489  0A52  05BD               	andwf	___fldiv@b+2,f
  8490  0A53                     l700:
  8491  0A53  084F               	movf	___fldiv@bexp,w
  8492  0A54  00BF               	movwf	??___fldiv
  8493  0A55  1003               	clrc
  8494  0A56  0C3F               	rrf	??___fldiv,w
  8495  0A57  00C0               	movwf	??___fldiv+1
  8496  0A58  0840               	movf	??___fldiv+1,w
  8497  0A59  00BE               	movwf	___fldiv@b+3
  8498  0A5A  0848               	movf	___fldiv@sign,w
  8499  0A5B  00BF               	movwf	??___fldiv
  8500  0A5C  083F               	movf	??___fldiv,w
  8501  0A5D  04BE               	iorwf	___fldiv@b+3,f
  8502  0A5E  28F7               	goto	l2429
  8503  0A5F                     l678:
  8504  0A5F  0008               	return
  8505  0A60                     __end_of___fldiv:
  8506                           
  8507                           	psect	text28
  8508  1637                     __ptext28:	
  8509 ;; *************** function ___awdiv *****************
  8510 ;; Defined at:
  8511 ;;		line 5 in file "D:\PrograMicros\pic\sources\c90\common\awdiv.c"
  8512 ;; Parameters:    Size  Location     Type
  8513 ;;  divisor         2    2[COMMON] int 
  8514 ;;  dividend        2    4[COMMON] int 
  8515 ;; Auto vars:     Size  Location     Type
  8516 ;;  quotient        2    2[BANK0 ] int 
  8517 ;;  sign            1    1[BANK0 ] unsigned char 
  8518 ;;  counter         1    0[BANK0 ] unsigned char 
  8519 ;; Return value:  Size  Location     Type
  8520 ;;                  2    2[COMMON] int 
  8521 ;; Registers used:
  8522 ;;		wreg, status,2, status,0
  8523 ;; Tracked objects:
  8524 ;;		On entry : 0/0
  8525 ;;		On exit  : 0/0
  8526 ;;		Unchanged: 0/0
  8527 ;; Data sizes:     COMMON   BANK0   BANK1   BANK3   BANK2
  8528 ;;      Params:         4       0       0       0       0
  8529 ;;      Locals:         0       4       0       0       0
  8530 ;;      Temps:          1       0       0       0       0
  8531 ;;      Totals:         5       4       0       0       0
  8532 ;;Total ram usage:        9 bytes
  8533 ;; Hardware stack levels used:    1
  8534 ;; Hardware stack levels required when called:    1
  8535 ;; This function calls:
  8536 ;;		Nothing
  8537 ;; This function is called by:
  8538 ;;		_division
  8539 ;;		_ADC_convert
  8540 ;; This function uses a non-reentrant model
  8541 ;;
  8542                           
  8543                           
  8544                           ;psect for function ___awdiv
  8545  1637                     ___awdiv:
  8546  1637                     l3079:	
  8547                           ;incstack = 0
  8548                           ; Regs used in ___awdiv: [wreg+status,2+status,0]
  8549                           
  8550  1637  1283               	bcf	3,5	;RP0=0, select bank0
  8551  1638  1303               	bcf	3,6	;RP1=0, select bank0
  8552  1639  01A1               	clrf	___awdiv@sign
  8553  163A                     l3081:
  8554  163A  1FF3               	btfss	___awdiv@divisor+1,7
  8555  163B  2E3D               	goto	u4181
  8556  163C  2E3E               	goto	u4180
  8557  163D                     u4181:
  8558  163D  2E45               	goto	l3087
  8559  163E                     u4180:
  8560  163E                     l3083:
  8561  163E  09F2               	comf	___awdiv@divisor,f
  8562  163F  09F3               	comf	___awdiv@divisor+1,f
  8563  1640  0AF2               	incf	___awdiv@divisor,f
  8564  1641  1903               	skipnz
  8565  1642  0AF3               	incf	___awdiv@divisor+1,f
  8566  1643                     l3085:
  8567  1643  01A1               	clrf	___awdiv@sign
  8568  1644  0AA1               	incf	___awdiv@sign,f
  8569  1645                     l3087:
  8570  1645  1FF5               	btfss	___awdiv@dividend+1,7
  8571  1646  2E48               	goto	u4191
  8572  1647  2E49               	goto	u4190
  8573  1648                     u4191:
  8574  1648  2E52               	goto	l3093
  8575  1649                     u4190:
  8576  1649                     l3089:
  8577  1649  09F4               	comf	___awdiv@dividend,f
  8578  164A  09F5               	comf	___awdiv@dividend+1,f
  8579  164B  0AF4               	incf	___awdiv@dividend,f
  8580  164C  1903               	skipnz
  8581  164D  0AF5               	incf	___awdiv@dividend+1,f
  8582  164E                     l3091:
  8583  164E  3001               	movlw	1
  8584  164F  00F6               	movwf	??___awdiv
  8585  1650  0876               	movf	??___awdiv,w
  8586  1651  06A1               	xorwf	___awdiv@sign,f
  8587  1652                     l3093:
  8588  1652  01A2               	clrf	___awdiv@quotient
  8589  1653  01A3               	clrf	___awdiv@quotient+1
  8590  1654                     l3095:
  8591  1654  0872               	movf	___awdiv@divisor,w
  8592  1655  0473               	iorwf	___awdiv@divisor+1,w
  8593  1656  1903               	btfsc	3,2
  8594  1657  2E59               	goto	u4201
  8595  1658  2E5A               	goto	u4200
  8596  1659                     u4201:
  8597  1659  2E91               	goto	l3115
  8598  165A                     u4200:
  8599  165A                     l3097:
  8600  165A  01A0               	clrf	___awdiv@counter
  8601  165B  0AA0               	incf	___awdiv@counter,f
  8602  165C  2E68               	goto	l3103
  8603  165D                     l3099:
  8604  165D  3001               	movlw	1
  8605  165E                     u4215:
  8606  165E  1003               	clrc
  8607  165F  0DF2               	rlf	___awdiv@divisor,f
  8608  1660  0DF3               	rlf	___awdiv@divisor+1,f
  8609  1661  3EFF               	addlw	-1
  8610  1662  1D03               	skipz
  8611  1663  2E5E               	goto	u4215
  8612  1664                     l3101:
  8613  1664  3001               	movlw	1
  8614  1665  00F6               	movwf	??___awdiv
  8615  1666  0876               	movf	??___awdiv,w
  8616  1667  07A0               	addwf	___awdiv@counter,f
  8617  1668                     l3103:
  8618  1668  1FF3               	btfss	___awdiv@divisor+1,7
  8619  1669  2E6B               	goto	u4221
  8620  166A  2E6C               	goto	u4220
  8621  166B                     u4221:
  8622  166B  2E5D               	goto	l3099
  8623  166C                     u4220:
  8624  166C                     l3105:
  8625  166C  3001               	movlw	1
  8626  166D                     u4235:
  8627  166D  1003               	clrc
  8628  166E  0DA2               	rlf	___awdiv@quotient,f
  8629  166F  0DA3               	rlf	___awdiv@quotient+1,f
  8630  1670  3EFF               	addlw	-1
  8631  1671  1D03               	skipz
  8632  1672  2E6D               	goto	u4235
  8633  1673  0873               	movf	___awdiv@divisor+1,w
  8634  1674  0275               	subwf	___awdiv@dividend+1,w
  8635  1675  1D03               	skipz
  8636  1676  2E79               	goto	u4245
  8637  1677  0872               	movf	___awdiv@divisor,w
  8638  1678  0274               	subwf	___awdiv@dividend,w
  8639  1679                     u4245:
  8640  1679  1C03               	skipc
  8641  167A  2E7C               	goto	u4241
  8642  167B  2E7D               	goto	u4240
  8643  167C                     u4241:
  8644  167C  2E84               	goto	l3111
  8645  167D                     u4240:
  8646  167D                     l3107:
  8647  167D  0872               	movf	___awdiv@divisor,w
  8648  167E  02F4               	subwf	___awdiv@dividend,f
  8649  167F  0873               	movf	___awdiv@divisor+1,w
  8650  1680  1C03               	skipc
  8651  1681  03F5               	decf	___awdiv@dividend+1,f
  8652  1682  02F5               	subwf	___awdiv@dividend+1,f
  8653  1683                     l3109:
  8654  1683  1422               	bsf	___awdiv@quotient,0
  8655  1684                     l3111:
  8656  1684  3001               	movlw	1
  8657  1685                     u4255:
  8658  1685  1003               	clrc
  8659  1686  0CF3               	rrf	___awdiv@divisor+1,f
  8660  1687  0CF2               	rrf	___awdiv@divisor,f
  8661  1688  3EFF               	addlw	-1
  8662  1689  1D03               	skipz
  8663  168A  2E85               	goto	u4255
  8664  168B                     l3113:
  8665  168B  3001               	movlw	1
  8666  168C  02A0               	subwf	___awdiv@counter,f
  8667  168D  1D03               	btfss	3,2
  8668  168E  2E90               	goto	u4261
  8669  168F  2E91               	goto	u4260
  8670  1690                     u4261:
  8671  1690  2E6C               	goto	l3105
  8672  1691                     u4260:
  8673  1691                     l3115:
  8674  1691  0821               	movf	___awdiv@sign,w
  8675  1692  1903               	btfsc	3,2
  8676  1693  2E95               	goto	u4271
  8677  1694  2E96               	goto	u4270
  8678  1695                     u4271:
  8679  1695  2E9B               	goto	l3119
  8680  1696                     u4270:
  8681  1696                     l3117:
  8682  1696  09A2               	comf	___awdiv@quotient,f
  8683  1697  09A3               	comf	___awdiv@quotient+1,f
  8684  1698  0AA2               	incf	___awdiv@quotient,f
  8685  1699  1903               	skipnz
  8686  169A  0AA3               	incf	___awdiv@quotient+1,f
  8687  169B                     l3119:
  8688  169B  0823               	movf	___awdiv@quotient+1,w
  8689  169C  00F3               	movwf	?___awdiv+1
  8690  169D  0822               	movf	___awdiv@quotient,w
  8691  169E  00F2               	movwf	?___awdiv
  8692  169F                     l480:
  8693  169F  0008               	return
  8694  16A0                     __end_of___awdiv:
  8695                           
  8696                           	psect	text29
  8697  0800                     __ptext29:	
  8698 ;; *************** function _isr *****************
  8699 ;; Defined at:
  8700 ;;		line 77 in file "P1_main_M.c"
  8701 ;; Parameters:    Size  Location     Type
  8702 ;;		None
  8703 ;; Auto vars:     Size  Location     Type
  8704 ;;		None
  8705 ;; Return value:  Size  Location     Type
  8706 ;;                  1    wreg      void 
  8707 ;; Registers used:
  8708 ;;		None
  8709 ;; Tracked objects:
  8710 ;;		On entry : 0/0
  8711 ;;		On exit  : 0/0
  8712 ;;		Unchanged: 0/0
  8713 ;; Data sizes:     COMMON   BANK0   BANK1   BANK3   BANK2
  8714 ;;      Params:         0       0       0       0       0
  8715 ;;      Locals:         0       0       0       0       0
  8716 ;;      Temps:          2       0       0       0       0
  8717 ;;      Totals:         2       0       0       0       0
  8718 ;;Total ram usage:        2 bytes
  8719 ;; Hardware stack levels used:    1
  8720 ;; This function calls:
  8721 ;;		Nothing
  8722 ;; This function is called by:
  8723 ;;		Interrupt level 1
  8724 ;; This function uses a non-reentrant model
  8725 ;;
  8726                           
  8727                           
  8728                           ;psect for function _isr
  8729  0800                     _isr:
  8730  0800                     i1l91:
  8731  0800  0871               	movf	??_isr+1,w
  8732  0801  008A               	movwf	10
  8733  0802  0E70               	swapf	??_isr,w
  8734  0803  0083               	movwf	3
  8735  0804  0EFE               	swapf	btemp,f
  8736  0805  0E7E               	swapf	btemp,w
  8737  0806  0009               	retfie
  8738  0807                     __end_of_isr:
  8739  007E                     btemp	set	126	;btemp
  8740  007E                     wtemp0	set	126
  8741                           
  8742                           	psect	intentry
  8743  0004                     __pintentry:	
  8744                           ;incstack = 0
  8745                           ; Regs used in _isr: []
  8746                           
  8747  0004                     interrupt_function:
  8748  007E                     saved_w	set	btemp
  8749  0004  00FE               	movwf	btemp
  8750  0005  0E03               	swapf	3,w
  8751  0006  00F0               	movwf	??_isr
  8752  0007  080A               	movf	10,w
  8753  0008  00F1               	movwf	??_isr+1
  8754  0009  120A  158A  2800   	ljmp	_isr
  8755                           
  8756                           	psect	config
  8757                           
  8758                           ;Config register CONFIG1 @ 0x2007
  8759                           ;	Oscillator Selection bits
  8760                           ;	FOSC = INTRC_NOCLKOUT, INTOSCIO oscillator: I/O function on RA6/OSC2/CLKOUT pin, I/O f
      +                          unction on RA7/OSC1/CLKIN
  8761                           ;	Watchdog Timer Enable bit
  8762                           ;	WDTE = OFF, WDT disabled and can be enabled by SWDTEN bit of the WDTCON register
  8763                           ;	Power-up Timer Enable bit
  8764                           ;	PWRTE = OFF, PWRT disabled
  8765                           ;	RE3/MCLR pin function select bit
  8766                           ;	MCLRE = OFF, RE3/MCLR pin function is digital input, MCLR internally tied to VDD
  8767                           ;	Code Protection bit
  8768                           ;	CP = OFF, Program memory code protection is disabled
  8769                           ;	Data Code Protection bit
  8770                           ;	CPD = OFF, Data memory code protection is disabled
  8771                           ;	Brown Out Reset Selection bits
  8772                           ;	BOREN = OFF, BOR disabled
  8773                           ;	Internal External Switchover bit
  8774                           ;	IESO = OFF, Internal/External Switchover mode is disabled
  8775                           ;	Fail-Safe Clock Monitor Enabled bit
  8776                           ;	FCMEN = OFF, Fail-Safe Clock Monitor is disabled
  8777                           ;	Low Voltage Programming Enable bit
  8778                           ;	LVP = OFF, RB3 pin has digital I/O, HV on MCLR must be used for programming
  8779                           ;	In-Circuit Debugger Mode bit
  8780                           ;	DEBUG = 0x1, unprogrammed default
  8781  2007                     	org	8199
  8782  2007  20D4               	dw	8404
  8783                           
  8784                           ;Config register CONFIG2 @ 0x2008
  8785                           ;	Brown-out Reset Selection bit
  8786                           ;	BOR4V = BOR40V, Brown-out Reset set to 4.0V
  8787                           ;	Flash Program Memory Self Write Enable bits
  8788                           ;	WRT = OFF, Write protection off
  8789  2008                     	org	8200
  8790  2008  3FFF               	dw	16383

Data Sizes:
    Strings     13
    Constant    0
    Data        0
    BSS         47
    Persistent  0
    Stack       0

Auto Spaces:
    Space          Size  Autos    Used
    COMMON           14     10      12
    BANK0            80     77      77
    BANK1            80     29      74
    BANK3            96      0       0
    BANK2            96      0       0

Pointer List with Targets:

    LCD_Write_String@a	PTR unsigned char  size(2) Largest target is 10
		 -> contador(BANK1[10]), STR_5(CODE[2]), ADC1(BANK1[10]), STR_4(CODE[2]), 
		 -> ADC0(BANK1[10]), STR_3(CODE[3]), STR_2(CODE[3]), STR_1(CODE[3]), 

    ADC_convert@data	PTR unsigned char  size(1) Largest target is 10
		 -> contador(BANK1[10]), ADC1(BANK1[10]), ADC0(BANK1[10]), 


Critical Paths under _main in COMMON

    _main->_division
    _I2C_Master_Init->___lldiv
    _division->___awmod
    _LCD_Write_String->_LCD_Write_Char
    _LCD_Write_Char->_LCD_Port
    _LCD_Set_Cursor->_LCD_Cmd
    _LCD_Init->_LCD_Cmd
    _LCD_Clear->_LCD_Cmd
    _LCD_Cmd->_LCD_Port
    _ADC_convert->___flge
    _ADC_convert->___wmul
    ___xxtofl->___wmul
    ___wmul->___fltol
    ___flsub->___fladd
    ___flsub->___wmul

Critical Paths under _isr in COMMON

    None.

Critical Paths under _main in BANK0

    _main->_ADC_convert
    _setup->_I2C_Master_Init
    _I2C_Master_Init->___lldiv
    _division->___awdiv
    _ADC_convert->___flmul
    ___xxtofl->___wmul
    ___wmul->___fltol
    ___flsub->___xxtofl
    ___flmul->___fldiv
    ___fldiv->___xxtofl

Critical Paths under _isr in BANK0

    None.

Critical Paths under _main in BANK1

    _main->_ADC_convert

Critical Paths under _isr in BANK1

    None.

Critical Paths under _main in BANK3

    None.

Critical Paths under _isr in BANK3

    None.

Critical Paths under _main in BANK2

    None.

Critical Paths under _isr in BANK2

    None.

Call Graph Tables:

 ---------------------------------------------------------------------------------
 (Depth) Function   	        Calls       Base Space   Used Autos Params    Refs
 ---------------------------------------------------------------------------------
 (0) _main                                                 8     8      0   27297
                                             21 BANK1      8     8      0
                        _ADC_convert
                    _I2C_Master_Read
                   _I2C_Master_Start
                    _I2C_Master_Stop
                   _I2C_Master_Write
                          _LCD_Clear
                           _LCD_Init
                     _LCD_Set_Cursor
                   _LCD_Write_String
                            ___fldiv
                            ___flmul
                            ___fltol
                           ___xxtofl
                           _division
                              _setup
 ---------------------------------------------------------------------------------
 (1) _setup                                                0     0      0     542
                    _I2C_Master_Init
 ---------------------------------------------------------------------------------
 (2) _I2C_Master_Init                                      8     4      4     542
                                              6 BANK0      8     4      4
                            ___lldiv
 ---------------------------------------------------------------------------------
 (3) ___lldiv                                             14     6      8     421
                                              2 COMMON     8     0      8
                                              0 BANK0      6     6      0
 ---------------------------------------------------------------------------------
 (1) _division                                             4     4      0    1647
                                              9 COMMON     1     1      0
                                              4 BANK0      3     3      0
                            ___awdiv
                            ___awmod
 ---------------------------------------------------------------------------------
 (2) ___awmod                                              7     3      4     600
                                              2 COMMON     7     3      4
 ---------------------------------------------------------------------------------
 (1) _LCD_Write_String                                     7     5      2    1028
                                              7 COMMON     2     0      2
                                              0 BANK0      5     5      0
                     _LCD_Write_Char
 ---------------------------------------------------------------------------------
 (2) _LCD_Write_Char                                       4     4      0     178
                                              3 COMMON     4     4      0
                           _LCD_Port
 ---------------------------------------------------------------------------------
 (1) _LCD_Set_Cursor                                       7     6      1     988
                                              6 COMMON     3     2      1
                                              0 BANK0      4     4      0
                            _LCD_Cmd
 ---------------------------------------------------------------------------------
 (1) _LCD_Init                                             2     2      0     198
                                              6 COMMON     2     2      0
                            _LCD_Cmd
                           _LCD_Port
 ---------------------------------------------------------------------------------
 (1) _LCD_Clear                                            0     0      0     110
                            _LCD_Cmd
 ---------------------------------------------------------------------------------
 (2) _LCD_Cmd                                              3     3      0     110
                                              3 COMMON     3     3      0
                           _LCD_Port
 ---------------------------------------------------------------------------------
 (3) _LCD_Port                                             1     1      0      88
                                              2 COMMON     1     1      0
 ---------------------------------------------------------------------------------
 (1) _I2C_Master_Write                                     2     0      2     402
                                              2 COMMON     2     0      2
                    _I2C_Master_Wait
 ---------------------------------------------------------------------------------
 (1) _I2C_Master_Stop                                      0     0      0       0
                    _I2C_Master_Wait
 ---------------------------------------------------------------------------------
 (1) _I2C_Master_Start                                     0     0      0       0
                    _I2C_Master_Wait
 ---------------------------------------------------------------------------------
 (1) _I2C_Master_Read                                      6     4      2     273
                                              2 COMMON     6     4      2
                    _I2C_Master_Wait
 ---------------------------------------------------------------------------------
 (2) _I2C_Master_Wait                                      0     0      0       0
 ---------------------------------------------------------------------------------
 (1) _ADC_convert                                         23    17      6   14612
                                             75 BANK0      2     2      0
                                              0 BANK1     21    15      6
                            ___awdiv
                            ___fldiv
                             ___flge
                            ___flmul
                            ___flsub
                            ___fltol
                             ___wmul
                           ___xxtofl
 ---------------------------------------------------------------------------------
 (1) ___xxtofl                                            14    10      4    1082
                                              9 BANK0     14    10      4
                            ___fltol (ARG)
                             ___wmul (ARG)
 ---------------------------------------------------------------------------------
 (2) ___wmul                                               6     2      4    1036
                                              8 COMMON     2     2      0
                                              5 BANK0      4     0      4
                            ___fltol (ARG)
 ---------------------------------------------------------------------------------
 (1) ___fltol                                             11     7      4    1057
                                              2 COMMON     6     2      4
                                              0 BANK0      5     5      0
 ---------------------------------------------------------------------------------
 (2) ___flsub                                              8     0      8    2637
                                             23 BANK0      8     0      8
                            ___fladd
                            ___fltol (ARG)
                             ___wmul (ARG)
                           ___xxtofl (ARG)
 ---------------------------------------------------------------------------------
 (3) ___fladd                                             20    12      8    2136
                                              2 COMMON     8     0      8
                                              0 BANK0     12    12      0
 ---------------------------------------------------------------------------------
 (1) ___flmul                                             26    18      8    3713
                                             49 BANK0     26    18      8
                          __Umul8_16
                            ___fldiv (ARG)
                            ___flsub (ARG)
                            ___fltol (ARG)
                           ___xxtofl (ARG)
 ---------------------------------------------------------------------------------
 (2) __Umul8_16                                            9     7      2     980
                                              2 COMMON     4     2      2
                                              0 BANK0      5     5      0
 ---------------------------------------------------------------------------------
 (2) ___flge                                              12     4      8     334
                                              2 COMMON     8     0      8
                                              0 BANK0      4     4      0
 ---------------------------------------------------------------------------------
 (1) ___fldiv                                             26    18      8    1577
                                             23 BANK0     26    18      8
                           ___xxtofl (ARG)
 ---------------------------------------------------------------------------------
 (2) ___awdiv                                              9     5      4     985
                                              2 COMMON     5     1      4
                                              0 BANK0      4     4      0
 ---------------------------------------------------------------------------------
 Estimated maximum stack depth 3
 ---------------------------------------------------------------------------------
 (Depth) Function   	        Calls       Base Space   Used Autos Params    Refs
 ---------------------------------------------------------------------------------
 (4) _isr                                                  2     2      0       0
                                              0 COMMON     2     2      0
 ---------------------------------------------------------------------------------
 Estimated maximum stack depth 4
 ---------------------------------------------------------------------------------

 Call Graph Graphs:

 _main (ROOT)
   _ADC_convert
     ___awdiv
     ___fldiv
       ___xxtofl (ARG)
         ___fltol (ARG)
         ___wmul (ARG)
           ___fltol (ARG)
     ___flge
     ___flmul
       __Umul8_16
       ___fldiv (ARG)
         ___xxtofl (ARG)
           ___fltol (ARG)
           ___wmul (ARG)
             ___fltol (ARG)
       ___flsub (ARG)
         ___fladd
         ___fltol (ARG)
         ___wmul (ARG)
           ___fltol (ARG)
         ___xxtofl (ARG)
           ___fltol (ARG)
           ___wmul (ARG)
             ___fltol (ARG)
       ___fltol (ARG)
       ___xxtofl (ARG)
         ___fltol (ARG)
         ___wmul (ARG)
           ___fltol (ARG)
     ___flsub
       ___fladd
       ___fltol (ARG)
       ___wmul (ARG)
         ___fltol (ARG)
       ___xxtofl (ARG)
         ___fltol (ARG)
         ___wmul (ARG)
           ___fltol (ARG)
     ___fltol
     ___wmul
       ___fltol (ARG)
     ___xxtofl
       ___fltol (ARG)
       ___wmul (ARG)
         ___fltol (ARG)
   _I2C_Master_Read
     _I2C_Master_Wait
   _I2C_Master_Start
     _I2C_Master_Wait
   _I2C_Master_Stop
     _I2C_Master_Wait
   _I2C_Master_Write
     _I2C_Master_Wait
   _LCD_Clear
     _LCD_Cmd
       _LCD_Port
   _LCD_Init
     _LCD_Cmd
       _LCD_Port
     _LCD_Port
   _LCD_Set_Cursor
     _LCD_Cmd
       _LCD_Port
   _LCD_Write_String
     _LCD_Write_Char
       _LCD_Port
   ___fldiv
     ___xxtofl (ARG)
       ___fltol (ARG)
       ___wmul (ARG)
         ___fltol (ARG)
   ___flmul
     __Umul8_16
     ___fldiv (ARG)
       ___xxtofl (ARG)
         ___fltol (ARG)
         ___wmul (ARG)
           ___fltol (ARG)
     ___flsub (ARG)
       ___fladd
       ___fltol (ARG)
       ___wmul (ARG)
         ___fltol (ARG)
       ___xxtofl (ARG)
         ___fltol (ARG)
         ___wmul (ARG)
           ___fltol (ARG)
     ___fltol (ARG)
     ___xxtofl (ARG)
       ___fltol (ARG)
       ___wmul (ARG)
         ___fltol (ARG)
   ___fltol
   ___xxtofl
     ___fltol (ARG)
     ___wmul (ARG)
       ___fltol (ARG)
   _division
     ___awdiv
     ___awmod
   _setup
     _I2C_Master_Init
       ___lldiv

 _isr (ROOT)

 Address spaces:
Name               Size   Autos  Total    Cost      Usage
BITCOMMON            E      0       0       0        0.0%
EEDATA             100      0       0       0        0.0%
NULL                 0      0       0       0        0.0%
CODE                 0      0       0       0        0.0%
COMMON               E      A       C       1       85.7%
BITSFR0              0      0       0       1        0.0%
SFR0                 0      0       0       1        0.0%
BITSFR1              0      0       0       2        0.0%
SFR1                 0      0       0       2        0.0%
STACK                0      0       0       2        0.0%
ABS                  0      0      A3       3        0.0%
BITBANK0            50      0       0       4        0.0%
BITSFR3              0      0       0       4        0.0%
SFR3                 0      0       0       4        0.0%
BANK0               50     4D      4D       5       96.2%
BITSFR2              0      0       0       5        0.0%
SFR2                 0      0       0       5        0.0%
BITBANK1            50      0       0       6        0.0%
BANK1               50     1D      4A       7       92.5%
BITBANK3            60      0       0       8        0.0%
BANK3               60      0       0       9        0.0%
BITBANK2            60      0       0      10        0.0%
BANK2               60      0       0      11        0.0%
DATA                 0      0      A3      12        0.0%


Microchip Technology PIC Macro Assembler V2.31 build 20201012212115 
Symbol Table                                                                                   Wed Sep 08 10:09:08 2021

             ___fldiv@aexp 0050               ___fldiv@bexp 004F                          pc 0002  
             ___fldiv@sign 0048                         l96 0CF7               ___awdiv@sign 0021  
                       fsr 0004        ___wmul@multiplicand 0027        __Umul8_16@word_mpld 0022  
                      l102 15CE                        l211 12CE                        l203 12B6  
                      l131 13A7                        l204 12B9                        l205 12BF  
                      l206 12C0                        l214 12AC                        l207 12C6  
                      l223 14B6                        l128 047F                        l208 12C7  
                      l160 13DF                        l209 12CD                        l217 1292  
                      l226 156C                        l163 1279                        l235 145E  
                      l501 16BE                        l181 1368                        l229 1418  
                      l166 1285                        l182 136B                        l327 1301  
                      l183 1370                        l175 126E                        l504 172A  
                      l520 086D                        l505 1743                        l513 0882  
                      l329 1319                        l169 1265                        l178 1278  
                      l523 0882                        l363 1636                        l700 0A53  
                      l620 0AC3                        l480 169F                        l624 0B6A  
                      l641 0C35                        l633 0CE7                        l722 074C  
                      l626 0B41                        l651 0C7B                        l716 07E0  
                      l645 0C59                        l493 150F                        l662 0CDB  
                      l654 0CB9                        l735 1330                        l663 0CE7  
                      l728 07D4                        l760 1768                        l737 1342  
                      l666 12F2                        l762 17FF                        l692 09D1  
                      l676 08DF                        l773 17C9                        l678 0A5F  
                      l774 17D5                        l766 17AD                        l698 0A43  
                      _GIE 005F                        _RC0 0038                        _RC1 0039  
                      _RC2 003A                        _RE0 0048                        _RC5 003D  
                      _RE1 0049                        _POT 00AD                        _isr 0800  
                      fsr0 0004                        indf 0000               ___awmod@sign 0078  
             ___flmul@aexp 005F               ___flmul@bexp 0064               ___flmul@sign 005E  
             ___flmul@temp 0069               ___flmul@prod 0065            __end_of_LCD_Cmd 12AD  
           _LCD_Set_Cursor 145F               ___fltol@exp1 0077                       l2001 0AA1  
                     l2011 0AB8                       l2003 0AA5                       l2101 0C13  
                     l2021 0AD1                       l2013 0AB9                       l2005 0AA6  
                     l2103 0C18                       l2031 0AE5                       l2023 0AD5  
                     l2007 0AAB                       l2015 0ABB                       l2121 0C60  
                     l2113 0C4B                       l2105 0C27                       l2041 0AF9  
                     l2033 0AE9                       l2025 0AD9                       l2017 0AC9  
                     l2009 0AB0                       l2201 129D                       l2131 0C6E  
                     l2123 0C62                       l2115 0C54                       l2107 0C3D  
                     l2043 0AFD                       l2035 0AED                       l2027 0ADD  
                     l2019 0ACD                       l2051 0B0D                       l2203 12A0  
                     l2211 13EE                       l3101 1664                       l2141 0C85  
                     l2133 0C72                       l2125 0C67                       l2117 0C58  
                     l2109 0C42                       l2061 0B50                       l2053 0B0E  
                     l2045 0B01                       l2037 0AF1                       l2029 0AE1  
                     l2205 12A9                       l2221 140D                       l2213 13FC  
                     l2301 14D5                       l3021 15F1                       l3111 1684  
                     l3103 1668                       l2151 0CC3                       l2143 0C93  
                     l2135 0C78                       l2119 0C5D                       l2127 0C69  
                     l2071 0B6E                       l2063 0B54                       l2055 0B25  
                     l2047 0B05                       l2039 0AF5                       l2223 1410  
                     l2215 13FF                       l2207 13E1                       l2311 14F4  
                     l2303 14DC                       l3031 161F                       l3023 15F5  
                     l3015 15CF                       l3113 168B                       l3105 166C  
                     l2401 08A8                       l3041 131F                       l2161 0CD7  
                     l2153 0CCB                       l2145 0C97                       l2081 0B97  
                     l2129 0C6D                       l2073 0B73                       l2065 0B55  
                     l2057 0B45                       l2049 0B09                       l2225 1415  
                     l2217 1404                       l2209 13EB                       l2313 14FB  
                     l2305 14E0                       l3033 1628                       l3025 15FE  
                     l3017 15E1                       l3107 167D                       l3115 1691  
                     l2411 08C1                       l2403 08AA                       l2331 16DE  
                     l2323 16A0                       l3043 1326                       l3211 0543  
                     l3203 04ED                       l2163 0CE2                       l2155 0CD0  
                     l2147 0CB5                       l2139 0C80                       l2091 0BAB  
                     l2083 0B9B                       l2067 0B5E                       l2059 0B4E  
                     l3131 0832                       l3123 0807                       l2219 1407  
                     l2307 14E4                       l2315 1501                       l3027 1610  
                     l3019 15E4                       l3035 162E                       l3117 1696  
                     l3109 1683                       l2501 09ED                       l2421 08D5  
                     l2413 08C2                       l2405 08B2                       l2333 1702  
                     l2325 16B6                       l3045 132A                       l3221 05C0  
                     l3213 056F                       l3205 04FD                       l2165 0CE6  
                     l2157 0CD1                       l2149 0CBE                       l2093 0BB4  
                     l2085 0BA4                       l2077 0B7C                       l2069 0B62  
                     l3133 0833                       l3125 0814                       l2317 1506  
                     l2309 14EE                       l3029 161E                       l3061 13DD  
                     l3053 13A8                       l3301 1375                       l3119 169B  
                     l2511 0A36                       l2503 0A06                       l2415 08C7  
                     l2423 08D7                       l2407 08B7                       l2335 1706  
                     l2327 16D2                       l3047 1339                       l3039 131D  
                     l3231 0640                       l3223 05DD                       l3215 058B  
                     l3207 050A                       l2159 0CD5                       l2087 0BA6  
                     l2079 0B93                       l2095 0BB9                       l3135 083B  
                     l3071 1308                       l2319 150B                       l3063 13DE  
                     l3055 13AC                       l3311 137F                       l3303 1378  
                     l3081 163A                       l2521 0A4F                       l2513 0A3A  
                     l2505 0A0C                       l2441 0920                       l2425 08E7  
                     l2433 0900                       l2417 08CC                       l2409 08BD  
                     l2337 1740                       l2329 16DA                       l3049 133E  
                     l3241 06F8                       l3233 066D                       l3225 05ED  
                     l3217 05A7                       l3209 0527                       l3161 0487  
                     l2097 0BCF                       l2089 0BAA                       l3153 0862  
                     l3145 0849                       l3137 083D                       l3129 081D  
                     l3073 130F                       l3065 12F3                       l3401 0219  
                     l2193 1279                       l3057 13AF                       l3321 138E  
                     l3313 1387                       l3305 1379                       l3091 164E  
                     l3083 163E                       l2515 0A42                       l2507 0A19  
                     l2451 093F                       l2443 0928                       l2435 0905  
                     l2427 08F3                       l2419 08D4                       l2339 1742  
                     l3251 071D                       l3243 0701                       l3235 067D  
                     l3227 060A                       l3219 05B0                       l3171 049C  
                     l3163 048D                       l2099 0C0D                       l3155 0872  
                     l3139 0841                       l3147 085B                       l3075 1315  
                     l3067 12F5                       l3411 0257                       l3403 0229  
                     l2195 127F                       l2291 14C1                       l3059 13DC  
                     l3331 1393                       l3323 138F                       l3315 138A  
                     l3307 137A                       l3093 1652                       l3085 1643  
                     l2517 0A49                       l2509 0A27                       l2461 0971  
                     l2453 0951                       l2445 0930                       l2429 08F7  
                     l3261 0735                       l3253 0726                       l3245 070F  
                     l3237 06AA                       l3229 0623                       l3181 04B9  
                     l3173 04A4                       l3165 0491                       l2381 12D3  
                     l3157 0877                       l3069 12FB                       l2701 17ED  
                     l3421 0317                       l3413 025D                       l3405 0231  
                     l2197 1294                       l2293 14C3                       l2285 14B7  
                     l3341 1398                       l3333 1394                       l3325 1390  
                     l3317 138C                       l3309 137E                       l3501 0E68  
                     _ADC0 00C3                       l3095 1654                       l3087 1645  
                     l3079 1637                       l2519 0A4D                       l2471 0992  
                     l2463 0972                       l2455 0955                       l2447 0938  
                     l2439 090E                       l2391 0894                       l3271 0764  
                     l3263 0749                       l3247 0718                       l3255 072C  
                     l3239 06D0                       l3191 04D0                       l3183 04BD  
                     l3175 04A6                       l3167 0492                       l3159 0480  
                     l2703 17F2                       l3431 032D                       l3423 0317  
                     l3415 0273                       l3407 0231                       l3351 0021  
                     l2199 1297                       l3343 1419                       l2295 14C7  
                     l2287 14B8                       l3335 1395                       l3327 1391  
                     l3319 138D                       l3511 0E9B                       l3503 0E71  
                     _ADC1 00B9                       l3097 165A                       l3089 1649  
                     l2481 09AB                       l2473 0994                       l2465 0980  
                     l2457 0956                       l2449 093A                       l2393 0895  
                     l2385 0883                       l3281 079F                       l3273 0768  
                     l3257 0730                       l3249 071C                       l3193 04D2  
                     l3185 04BE                       l3177 04AE                       l3169 0497  
                     l2705 17F6                       l3441 0439                       l3433 0332  
                     l3425 031D                       l3417 0302                       l3409 0236  
                     l3361 003C                       l3353 0034                       l2801 147D  
                     l3345 141E                       l2297 14CC                       l2289 14BC  
                     l3337 1396                       l3329 1392                       l3521 0ECD  
                     l3513 0EA7                       l3505 0E7D                       l3099 165D  
                     l2491 09CE                       l2475 099D                       l2483 09B1  
                     l2459 095F                       l2467 0984                       l2395 089A  
                     l2387 088A                       l3291 07CC                       l3283 07AE  
                     l3275 0781                       l3267 0751                       l3259 0731  
                     l3195 04DA                       l3187 04C3                       l3179 04B3  
                     l2379 12CF                       l2707 17F7                       l3451 046F  
                     l3443 0457                       l3435 0353                       l3427 0322  
                     l3419 030A                       l3371 00AA                       l3363 003C  
                     l3355 0034                       l2811 14A8                       l2803 1483  
                     l3347 143A                       l2299 14D2                       l3339 1397  
                     l3531 0FB1                       l3523 0F38                       l3515 0EB0  
                     l3507 0E86                       l2485 09B5                       l2477 09A1  
                     l2469 098A                       l2397 089F                       l2389 0890  
                     l3293 07CD                       l3285 07B8                       l3269 0756  
                     l3277 0787                       l3197 04DF                       l3189 04C8  
                     l3445 045F                       l3437 0359                       l3429 0328  
                     l3381 00D7                       l3373 00BD                       l3365 0055  
                     l3357 0036                       l1941 12B2                       l2813 14AE  
                     l2805 148C                       l3349 1442                       l3453 156E  
                     l3533 0FEA                       l3525 0F4A                       l3517 0EBE  
                     l3509 0E92                       l3461 0D2A                       l2495 09D6  
                     l2487 09B6                       l2479 09A2                       l2399 08A7  
                     l3295 07D8                       l3287 07BA                       l3279 0794  
                     l3199 04E4                       l2671 1750                       l3447 0465  
                     l3439 036F                       l3391 01E3                       l3383 00DC  
                     l3367 0094                       l3375 00C3                       l3359 0038  
                     l1943 12BD                       l2807 1492                       l3527 0F85  
                     l3519 0EC5                       l3471 0D7E                       l3463 0D33  
                     l3455 0CE8                       l2497 09DB                       l2489 09BA  
                     l3289 07C8                       l2681 177E                       l2673 1760  
                     l3449 0469                       l3393 0201                       l3385 00FD  
                     l3377 00CC                       l3369 00A1                       l1945 12C4  
                     l2761 152E                       l2809 14A3                       l3529 0F97  
                     l3481 0DE9                       l3473 0D83                       l3465 0D3C  
                     l3457 0D16                       l2499 09E9                       l2691 17B4  
                     l2683 178B                       l2675 1770                       l2667 1747  
                     l3395 0209                       l3387 0103                       l3379 00D2  
                     l2771 126F                       l1947 12CB                       l1939 12AE  
                     l2763 1534                       l2755 1510                       l3299 1371  
                     l3491 0E34                       l3483 0DF1                       l3475 0D8C  
                     l3467 0D41                       l3459 0D25                       l1981 0A72  
                     l1973 0A60                       l2693 17BF                       l2685 1792  
                     l2669 174C                       l3397 020F                       l3389 0119  
                     l2781 1359                       l2773 1274                       l2765 1286  
                     l2757 1516                       l3493 0E3D                       l3485 0E0A  
                     l3477 0D98                       l3469 0D6F                       l1983 0A77  
                     l1991 0A87                       l1975 0A67                       l2695 17C3  
                     l2687 1796                       l2679 1779                       l3399 0213  
                     l2783 135E                       l2775 1343                       l2767 125D  
                     l2791 1266                       l2759 151F                       l3495 0E4B  
                     l3487 0E13                       l3479 0D9D                       l1993 0A8F  
                     l1985 0A7C                       l1977 0A6D                       l2697 17CD  
                     l2689 17A4                       l2785 1364                       l2777 1348  
                     l2769 1262                       l2793 126B                       l3497 0E53  
                     l3489 0E28                       l1995 0A94                       l1987 0A84  
                     l1979 0A71                       l2699 17D7                       l2787 136C  
                     l2779 1350                       l2795 1462                       l3499 0E5C  
                     l1997 0A9A                       l1989 0A85                       l2797 1467  
                     l1999 0A9B                       l2799 1478                       ?_isr 0070  
                     STR_1 07F1                       STR_2 07F4                       STR_3 07F7  
                     STR_4 07FC                       STR_5 07FA                       u2020 12B2  
                     u2021 12B1                       u2030 12BD                       u2031 12BC  
                     u2200 0AC9                       u2040 12C4                       u2201 0AC8  
                     u2041 12C3                       u2210 0ACD                       u2130 0A71  
                     u2050 12CB                       u2211 0ACC                       u2131 0A70  
                     u2051 12CA                       u3100 08C7                       u2300 0B73  
                     u2220 0B25                       u2140 0A77                       u3101 08C6  
                     u2301 0B72                       u2221 0B24                       u2141 0A76  
                     u3110 08CC                       u2230 0B2E                       u2150 0A7C  
                     u3111 08CB                       u2311 0B85                       u2231 0B2C  
                     u2151 0A7B                       u3200 098A                       u3120 08E7  
                     u2400 0C3D                       u2320 0B97                       u2312 0B8C  
                     u2240 0B2F                       u2160 0A9A                       u3201 0989  
                     u3121 08E6                       u2401 0C3C                       u2321 0B96  
                     u2313 0B93                       u2225 0B21                       u2161 0A99  
                     u3210 0992                       u3130 0905                       u2410 0C42  
                     u2330 0B9B                       u2250 0B45                       u2170 0AA5  
                     u3211 0991                       u3131 0904                       u2411 0C41  
                     u2331 0B9A                       u2251 0B44                       u2171 0AA4  
                     u3300 09ED                       u3140 093F                       u3060 0894  
                     u4100 132A                       u2500 0C85                       u2340 0BAA  
                     u2260 0B54                       u2180 0AAB                       u3301 09EC  
                     u3141 093E                       u3061 0893                       u4101 1329  
                     u2501 0C84                       u2341 0BA9                       u2261 0B53  
                     u2181 0AAA                       u3310 09FC                       u3230 09A1  
                     u3070 089A                       u2510 0C97                       u2430 0C58  
                     u2190 0AB0                       u4030 15E1                       u3231 09A0  
                     u3071 0899                       u2511 0C96                       u2431 0C57  
                     u2191 0AAF                       u4031 15E0                       u4200 165A  
                     u3320 0A19                       u3080 089F                       u4120 133E  
                     u2520 0CA6                       u2440 0C5D                       u2360 0BCF  
                     u2280 0B6A                       u4201 1659                       u3321 0A18  
                     u3225 0996                       u3081 089E                       u4121 133D  
                     u2441 0C5C                       u2425 0C4D                       u2361 0BCE  
                     u2281 0B69                       u3330 0A36                       u3250 09B5  
                     u3170 0955                       u3090 08C1                       u2530 0CB5  
                     u2450 0C67                       u2290 0B6E                       u4050 15F5  
                     u4130 13BF                       u3331 0A35                       u3315 09F7  
                     u3251 09B4                       u3171 0954                       u3155 0941  
                     u3091 08C0                       u4115 1331                       u2531 0CB4  
                     u2451 0C66                       u2371 0BE6                       u2363 0BCB  
                     u2355 0BAD                       u2291 0B6D                       u2275 0B57  
                     u4051 15F4                       u4220 166C                       u3340 0A4D  
                     u3260 09BA                       u2540 0CBE                       u2460 0C6D  
                     u2380 0BFA                       u2372 0BE7                       u4300 0841  
                     u4140 12FB                       u4221 166B                       u3341 0A4C  
                     u3325 0A15                       u3261 09B9                       u3245 09A4  
                     u3165 094A                       u2541 0CBD                       u2525 0CA1  
                     u2461 0C6C                       u2381 0BFB                       u2373 0BEC  
                     u4301 0840                       u4141 12FA                       u4045 15E6  
                     u3270 09CE                       u3190 0971                       u2550 0CC3  
                     u2470 0C72                       u2390 0C18                       u2382 0C00  
                     u2374 0BED                       u4310 0848                       u2630 127F  
                     u4070 1610                       u4215 165E                       u3335 0A32  
                     u3271 09CD                       u3191 0970                       u2551 0CC2  
                     u2471 0C71                       u2391 0C17                       u2383 0C01  
                     u2375 0BF2                       u4311 0847                       u2631 127E  
                     u4071 160F                       u4135 13BA                       u4240 167D  
                     u3280 09D5                       u4400 049C                       u2560 0CD0  
                     u2480 0C78                       u2376 0BF3                       u2640 1285  
                     u2800 14BC                       u4241 167C                       u3281 09D4  
                     u3185 0958                       u4401 049B                       u2561 0CCF  
                     u2481 0C77                       u2641 1284                       u2801 14BB  
                     u4065 15F7                       u3290 09DB                       u4410 04BD  
                     u2570 0CD5                       u2490 0C7F                       u4330 085A  
                     u4170 1315                       u2810 14C7                       u4090 162E  
                     u4235 166D                       u3291 09DA                       u3195 096D  
                     u4411 04BC                       u2571 0CD4                       u2491 0C7E  
                     u4331 0859                       u4171 1314                       u4155 1302  
                     u2811 14C6                       u4091 162D                       u4075 160C  
                     u4260 1691                       u4180 163E                       u2900 16D2  
                     u4420 04C3                       u2580 0CE6                       u4340 0861  
                     u2820 14D2                       u4261 1690                       u4245 1679  
                     u4181 163D                       u2901 16D1                       u4421 04C2  
                     u2581 0CE5                       u4341 0860                       u4325 084A  
                     u4165 1309                       u2821 14D1                       u4085 1620  
                     u4270 1696                       u4190 1649                       u2910 16DE  
                     u4430 04C8                       u4271 1695                       u4255 1685  
                     u4191 1648                       u2911 16DD                       u4511 05CF  
                     u4431 04C7                       u2655 13F1                       u4512 05D6  
                     u4440 04DF                       u4360 0872                       u4280 0814  
                     u3800 17C3                       u3720 174C                       u2840 14E4  
                     u2921 16ED                       u4601 06EA                       u4521 05FC  
                     u4513 05DD                       u4505 05A9                       u4441 04DE  
                     u4361 0871                       u4281 0813                       u3801 17C2  
                     u3721 174B                       u2841 14E3                       u2930 1706  
                     u2922 16EE                       u4602 06F1                       u4522 0603  
                     u4450 04E4                       u4370 0877                       u4290 082B  
                     u3810 17C9                       u3730 1750                       u2850 14EE  
                     u2931 1705                       u2923 16F3                       u4603 06F8  
                     u4523 060A                       u4451 04E3                       u4371 0876  
                     u4355 0864                       u3811 17C8                       u3731 174F  
                     u2851 14ED                       u2835 14D6                       _PEIE 005E  
                     u2924 16F4                       u4700 0768                       u4380 0491  
                     u3820 17CD                       u3740 1770                       u2941 1715  
                     u2925 16F9                       u4701 0767                       u4541 0632  
                     u4461 0535                       u4381 0490                       u3821 17CC  
                     u3741 176F                       u2950 1740                       u2942 1716  
                     u2926 16FA                       u4710 0777                       u4630 071C  
                     u4542 0639                       u4462 053C                       u4390 0497  
                     u3830 17E2                       u2870 1501                       u2951 173F  
                     u2943 171B                       u4631 071B                       u4615 06FA  
                     u4551 065F                       u4543 0640                       u4535 060C  
                     u4471 0551                       u4463 0543                       u4391 0496  
                     u4295 0826                       u2871 1500                       u2855 14EA  
                     u2944 171C                       u4720 0794                       u4552 0666  
                     u4472 0558                       u3840 17F2                       u3760 1791  
                     u4800 00D2                       u2880 1506                       u2945 1721  
                     u4721 0793                       u4625 0711                       u4561 068C  
                     u4553 066D                       u4481 057D                       u4473 055F  
                     u3841 17F1                       u3761 1790                       u4801 00D1  
                     u3905 149A                       u2881 1505                       u2865 14F5  
                     u2946 1722                       u2890 16B6                       u4730 07AE  
                     u4650 0730                       u4570 06B6                       u4562 0693  
                     u4482 0584                       u3850 17F6                       u4810 0119  
                     u2955 173C                       u2891 16B5                       u4731 07AD  
                     u4715 0772                       u4651 072F                       u4563 069A  
                     u4491 0599                       u4483 058B                       u3851 17F5  
                     u3835 17DD                       u3755 1783                       u4811 0118  
                     u4740 07CC                       u4660 0735                       u4492 05A0  
                     u3780 17B3                       u4820 0219                       u3860 1364  
                     u4741 07CB                       u4725 0790                       u4661 0734  
                     u4645 071F                       u4581 06C2                       u4493 05A7  
                     u3781 17B2                       u4821 0218                       u3861 1363  
                     u4670 0749                       u4590 06DE                       u4582 06C9  
                     u4830 0273                       u3870 1467                       u4750 1428  
                     u4735 07AA                       u4671 0748                       u4583 06D0  
                     u4575 06B1                       u3775 17A5                       u4831 0272  
                     u4815 0115                       u3871 1466                       u4680 0750  
                     u4840 0328                       u4760 144C                       u4681 074F  
                     u4841 0327                       u4690 0756                       u4850 036F  
                     u3890 1492                       u4770 145E                       i1l91 0800  
                     u4691 0755                       u4595 06D9                       u3795 17B8  
                     u4851 036E                       u4835 026F                       u3891 1491  
                     u4771 145D                       u4907 0DA5                       u4860 046F  
                     u4780 0055                       u4861 046E                       u4781 0054  
                     u3885 146F                       u4917 0E45                       u4790 00CB  
                     u4855 036B                       u4791 00CA                       u4927 0EB8  
                     u4937 1401                       u4947 1412                       u4957 151A  
                     u4877 0D1E                       u4967 1529                       u4887 0D49  
                     u4977 1538                       u4897 0D77                       u4987 12A4  
                     _WPUB 0095          ?_LCD_Write_String 0077                       _main 0CE8  
       __size_of_LCD_Clear 000D                       btemp 007E              ADC_convert@mu 00E0  
                     start 000C         ??_LCD_Write_String 0020            ___fldiv@new_exp 0049  
     __size_of_ADC_convert 0462                      ??_isr 0070           __end_of_LCD_Init 156D  
         ?_I2C_Master_Init 0026           ?_I2C_Master_Read 0072           __end_of_LCD_Port 12CF  
         ?_I2C_Master_Wait 0070           ?_I2C_Master_Stop 0070              ___fltol@sign1 0076  
          __end_of___fladd 0CE8                      ?_main 0070            __end_of___fldiv 0A60  
          __end_of___awdiv 16A0            __end_of___awmod 1510            __end_of___flmul 07E1  
          __end_of___flsub 12F3            __end_of___fltol 0883                      _ANSEL 0188  
          __end_of___lldiv 1637            ___awdiv@divisor 0072            ___awdiv@counter 0020  
                    _PORTA 0005                      _PORTB 0006                      _PORTC 0007  
                    _PORTD 0008                      _PORTE 0009                      _TRISB 0086  
                    _TRISC 0087                      _TRISD 0088                      _SSPIE 0463  
                    _SSPIF 0063     __end_of_LCD_Set_Cursor 14B7                      _value 00A8  
                    _setup 1371                      pclath 000A                      status 0003  
                    wtemp0 007E             _LCD_Write_Char 13E0            __initialization 000F  
             __end_of_main 1000                     ??_main 00E2          __end_of_LCD_Clear 1293  
                ??_LCD_Cmd 0073          ?_I2C_Master_Start 0070          ?_I2C_Master_Write 0072  
          ?_LCD_Set_Cursor 0076         ??_I2C_Master_Start 0072         ??_I2C_Master_Write 0074  
         ___awdiv@dividend 0074                     ?_setup 0070                     _ANSELH 0189  
                   _SSPADD 0093                     _TRISC3 043B                     _TRISC4 043C  
                   _SSPCON 0014                     _SSPBUF 0013           __end_of___xxtofl 1800  
   __end_of_LCD_Write_Char 1419                     ___flge 16A0           __end_of_division 15CF  
                ??___fladd 0020                     ___wmul 12F3                  ??___fldiv 003F  
                ??___awdiv 0076                  ??___awmod 0076                  ??___flmul 0059  
                ??___flsub 007A                  ??___fltol 0020                  ??___lldiv 0020  
         ___awdiv@quotient 0022            ___awmod@divisor 0072            ___awmod@counter 0077  
           _Temp_conversor 00AC         __size_of__Umul8_16 0029                     saved_w 007E  
          ADC_convert@data 00D7            ADC_convert@temp 00D3            LCD_Set_Cursor@a 0020  
          LCD_Set_Cursor@b 0076            LCD_Set_Cursor@y 0022            LCD_Set_Cursor@z 0021  
               ___flge@ff1 0072                 ___flge@ff2 0076               ___xxtofl@arg 0033  
             ___xxtofl@exp 0032               ___xxtofl@val 0029    __end_of__initialization 001A  
                ?_LCD_Init 0070                  ?_LCD_Port 0070                 ___fltol@f1 0072  
          ?_LCD_Write_Char 0070             __pcstackCOMMON 0070                  LCD_Port@a 0072  
            __end_of_setup 13A8              division@value 0079             _OPTION_REGbits 0081  
                  ??_setup 007A                 __pbssBANK1 00A0                 ??_LCD_Init 0076  
               ??_LCD_Port 0072          __end_of__Umul8_16 1343                 __pmaintext 0CE8  
                  ?___flge 0072                    ?___wmul 0025                 __pintentry 0004  
__size_of_LCD_Write_String 0046                    _LCD_Cmd 1293                  ?___xxtofl 0029  
                  _SSPCON2 0091                    _SSPSTAT 0094                 __stringtab 07E1  
                ?_division 0070                    _Decenas 00AA              ??_ADC_convert 006B  
                  _Residuo 007A            __size_of___flge 00A4                    ___fladd 0A60  
                  ___fldiv 0883                    ___awdiv 1637                    ___awmod 14B7  
                  ___flmul 0480                    ___flsub 12CF                    ___fltol 0807  
                  ___lldiv 15CF            __size_of___wmul 0027           ??_LCD_Set_Cursor 0077  
                  __ptext1 1371                    __ptext2 13A8                    __ptext3 15CF  
                  __ptext4 156D                    __ptext5 14B7                    __ptext6 1419  
                  __ptext7 13E0                    __ptext8 145F                    __ptext9 1510  
                  _counter 00A4               __size_of_isr 0007                 ??___xxtofl 002D  
         ___awmod@dividend 0074   __size_of_I2C_Master_Init 0038   __size_of_I2C_Master_Read 002E  
 __size_of_I2C_Master_Wait 000D   __size_of_I2C_Master_Stop 0009                  _LCD_Clear 1286  
                  clrloop0 1256       ADC_convert@character 00DE       end_of_initialization 001A  
               ??_division 0024  __size_of_I2C_Master_Start 0009  __size_of_I2C_Master_Write 000A  
          ___lldiv@divisor 0072            ___lldiv@counter 0025           ADC_convert@place 00D1  
         I2C_Master_Init@c 0026           I2C_Master_Read@a 0072        __end_of_ADC_convert 0480  
              ___fladd@grs 002B              ___xxtofl@sign 0031                  _TRISAbits 0085  
                _TRISCbits 0087                  _TRISEbits 0089                 ?_LCD_Clear 0070  
              ___fldiv@grs 004B                ___fldiv@rem 0044          LCD_Write_String@a 0077  
        LCD_Write_String@i 0023           ??_LCD_Write_Char 0073                ___flmul@grs 0060  
        __size_of_LCD_Init 005D               ADC_convert@a 00CD               ADC_convert@i 00DC  
             ADC_convert@j 00D5               ADC_convert@x 00D8          __size_of_LCD_Port 0022  
           __end_of___flge 1744             __end_of___wmul 131A           _LCD_Write_String 1419  
      start_initialization 000F                __end_of_isr 0807          ??_I2C_Master_Init 002A  
        ??_I2C_Master_Read 0074          ??_I2C_Master_Wait 0072          ??_I2C_Master_Stop 0072  
              _ADC_convert 001E                   ??___flge 0020                   ??___wmul 0078  
                __Umul8_16 131A            LCD_Write_Char@a 0076            LCD_Write_Char@y 0075  
                ___fladd@a 0076                  ___fladd@b 0072                   ?_LCD_Cmd 0070  
                ___fldiv@a 0037                  ___fldiv@b 003B                  ___flmul@a 0055  
                ___flmul@b 0051                __pbssCOMMON 007A                   LCD_Cmd@a 0075  
                ___flsub@a 0037                  ___flsub@b 003B                  ___latbits 0002  
            __pcstackBANK0 0020              __pcstackBANK1 00CD                ??_LCD_Clear 0076  
        __size_of___xxtofl 00BC          __size_of_division 0062           _I2C_Master_Start 125D  
         _I2C_Master_Write 126F                  _main$1024 00E6                   ?___fladd 0072  
                 ?___fldiv 0037                   ?___awdiv 0072                   ?___awmod 0072  
                 ?___flmul 0051                   ?___flsub 0037                   ?___fltol 0072  
                 ?___lldiv 0072                 ?__Umul8_16 0072                  __pstrings 07E1  
            _Pot_conversor 00A0             _Cont_conversor 00AB             __size_of_setup 0037  
        interrupt_function 0004                   _LCD_Init 1510             ___wmul@product 0078  
                 _LCD_Port 12AD                   _IOCBbits 0096                  clear_ram0 1255  
              __stringbase 07F0          ___wmul@multiplier 0025           __size_of_LCD_Cmd 001A  
                 _Centenas 007B        I2C_Master_Read@temp 0076   __end_of_LCD_Write_String 145F  
                 _Unidades 00A9                ??__Umul8_16 0074           __size_of___fladd 0288  
         __size_of___fldiv 01DD           __size_of___awdiv 0069           __size_of___awmod 0059  
         __size_of___flmul 0361           __size_of___flsub 0024           __size_of___fltol 007C  
         __size_of___lldiv 0068         __end_of__stringtab 07F1            _I2C_Master_Init 13A8  
          _I2C_Master_Read 1343                   ___xxtofl 1744            _I2C_Master_Wait 1279  
          _I2C_Master_Stop 1266                   __ptext10 1286                   __ptext11 1293  
                 __ptext20 12F3                   __ptext12 12AD                   __ptext21 0807  
                 __ptext13 126F                   __ptext22 12CF                   __ptext14 1266  
                 __ptext23 0A60                   __ptext15 125D                   __ptext24 0480  
                 __ptext16 1343                   __ptext25 131A                   __ptext17 1279  
                 __ptext26 16A0                   __ptext18 001E                   __ptext27 0883  
                 __ptext19 1744                   __ptext28 1637                   __ptext29 0800  
  __size_of_LCD_Set_Cursor 0058                   _division 156D                   _contador 00AF  
            __size_of_main 0318               ?_ADC_convert 00CD   __end_of_I2C_Master_Start 1266  
 __end_of_I2C_Master_Write 1279         LCD_Write_Char@temp 0074                   intlevel1 0000  
         ___lldiv@dividend 0076                  stringcode 07EB                 _OSCCONbits 008F  
  __size_of_LCD_Write_Char 0039         LCD_Set_Cursor@temp 0023    __end_of_I2C_Master_Init 13E0  
  __end_of_I2C_Master_Read 1371    __end_of_I2C_Master_Wait 1286    __end_of_I2C_Master_Stop 126F  
   __Umul8_16@multiplicand 0072                _temperature 00AE           ___lldiv@quotient 0021  
        I2C_Master_Write@d 0072                   stringdir 07EB                   stringtab 07E1  
              _SSPCON2bits 0091              ___fladd@signs 0028               ___fladd@aexp 0029  
             ___fladd@bexp 002A       __Umul8_16@multiplier 0024          __Umul8_16@product 0020  
